	.file	"bit.cpp"
	.intel_syntax noprefix
	.text
.Ltext0:
	.section	.text._ZNSt9exceptionC2Ev,"axG",@progbits,_ZNSt9exceptionC5Ev,comdat
	.align 2
	.weak	_ZNSt9exceptionC2Ev
	.type	_ZNSt9exceptionC2Ev, @function
_ZNSt9exceptionC2Ev:
.LFB13:
	.file 1 "/usr/include/c++/4.7/exception"
	.loc 1 65 0
	.cfi_startproc
	push	rbp
.LCFI0:
	.cfi_def_cfa_offset 16
	.cfi_offset 6, -16
	mov	rbp, rsp
.LCFI1:
	.cfi_def_cfa_register 6
	mov	QWORD PTR [rbp-8], rdi
.LBB2:
	.loc 1 65 0
	mov	rax, QWORD PTR [rbp-8]
	mov	QWORD PTR [rax], OFFSET FLAT:_ZTVSt9exception+16
.LBE2:
	pop	rbp
.LCFI2:
	.cfi_def_cfa 7, 8
	ret
	.cfi_endproc
.LFE13:
	.size	_ZNSt9exceptionC2Ev, .-_ZNSt9exceptionC2Ev
	.weak	_ZNSt9exceptionC1Ev
	.set	_ZNSt9exceptionC1Ev,_ZNSt9exceptionC2Ev
	.section	.text._ZNSt13bad_exceptionC2Ev,"axG",@progbits,_ZNSt13bad_exceptionC5Ev,comdat
	.align 2
	.weak	_ZNSt13bad_exceptionC2Ev
	.type	_ZNSt13bad_exceptionC2Ev, @function
_ZNSt13bad_exceptionC2Ev:
.LFB16:
	.loc 1 78 0
	.cfi_startproc
	push	rbp
.LCFI3:
	.cfi_def_cfa_offset 16
	.cfi_offset 6, -16
	mov	rbp, rsp
.LCFI4:
	.cfi_def_cfa_register 6
	sub	rsp, 16
	mov	QWORD PTR [rbp-8], rdi
.LBB3:
	.loc 1 78 0
	mov	rax, QWORD PTR [rbp-8]
	mov	rdi, rax
	call	_ZNSt9exceptionC2Ev
	mov	rax, QWORD PTR [rbp-8]
	mov	QWORD PTR [rax], OFFSET FLAT:_ZTVSt13bad_exception+16
.LBE3:
	leave
.LCFI5:
	.cfi_def_cfa 7, 8
	ret
	.cfi_endproc
.LFE16:
	.size	_ZNSt13bad_exceptionC2Ev, .-_ZNSt13bad_exceptionC2Ev
	.weak	_ZNSt13bad_exceptionC1Ev
	.set	_ZNSt13bad_exceptionC1Ev,_ZNSt13bad_exceptionC2Ev
	.section	.text._ZNSt9bad_allocC2Ev,"axG",@progbits,_ZNSt9bad_allocC5Ev,comdat
	.align 2
	.weak	_ZNSt9bad_allocC2Ev
	.type	_ZNSt9bad_allocC2Ev, @function
_ZNSt9bad_allocC2Ev:
.LFB263:
	.file 2 "/usr/include/c++/4.7/new"
	.loc 2 59 0
	.cfi_startproc
	push	rbp
.LCFI6:
	.cfi_def_cfa_offset 16
	.cfi_offset 6, -16
	mov	rbp, rsp
.LCFI7:
	.cfi_def_cfa_register 6
	sub	rsp, 16
	mov	QWORD PTR [rbp-8], rdi
.LBB4:
	.loc 2 59 0
	mov	rax, QWORD PTR [rbp-8]
	mov	rdi, rax
	call	_ZNSt9exceptionC2Ev
	mov	rax, QWORD PTR [rbp-8]
	mov	QWORD PTR [rax], OFFSET FLAT:_ZTVSt9bad_alloc+16
.LBE4:
	leave
.LCFI8:
	.cfi_def_cfa 7, 8
	ret
	.cfi_endproc
.LFE263:
	.size	_ZNSt9bad_allocC2Ev, .-_ZNSt9bad_allocC2Ev
	.weak	_ZNSt9bad_allocC1Ev
	.set	_ZNSt9bad_allocC1Ev,_ZNSt9bad_allocC2Ev
	.section	.text._ZnwmPv,"axG",@progbits,_ZnwmPv,comdat
	.weak	_ZnwmPv
	.type	_ZnwmPv, @function
_ZnwmPv:
.LFB265:
	.loc 2 112 0
	.cfi_startproc
	push	rbp
.LCFI9:
	.cfi_def_cfa_offset 16
	.cfi_offset 6, -16
	mov	rbp, rsp
.LCFI10:
	.cfi_def_cfa_register 6
	mov	QWORD PTR [rbp-8], rdi
	mov	QWORD PTR [rbp-16], rsi
	.loc 2 112 0
	mov	rax, QWORD PTR [rbp-16]
	pop	rbp
.LCFI11:
	.cfi_def_cfa 7, 8
	ret
	.cfi_endproc
.LFE265:
	.size	_ZnwmPv, .-_ZnwmPv
	.local	_ZStL8__ioinit
	.comm	_ZStL8__ioinit,1,1
	.section	.text._ZN5boost12noncopyable_11noncopyableD2Ev,"axG",@progbits,_ZN5boost12noncopyable_11noncopyableD5Ev,comdat
	.align 2
	.weak	_ZN5boost12noncopyable_11noncopyableD2Ev
	.type	_ZN5boost12noncopyable_11noncopyableD2Ev, @function
_ZN5boost12noncopyable_11noncopyableD2Ev:
.LFB1060:
	.file 3 "/usr/local/include/boost/noncopyable.hpp"
	.loc 3 25 0
	.cfi_startproc
	push	rbp
.LCFI12:
	.cfi_def_cfa_offset 16
	.cfi_offset 6, -16
	mov	rbp, rsp
.LCFI13:
	.cfi_def_cfa_register 6
	mov	QWORD PTR [rbp-8], rdi
	.loc 3 25 0
	pop	rbp
.LCFI14:
	.cfi_def_cfa 7, 8
	ret
	.cfi_endproc
.LFE1060:
	.size	_ZN5boost12noncopyable_11noncopyableD2Ev, .-_ZN5boost12noncopyable_11noncopyableD2Ev
	.weak	_ZN5boost12noncopyable_11noncopyableD1Ev
	.set	_ZN5boost12noncopyable_11noncopyableD1Ev,_ZN5boost12noncopyable_11noncopyableD2Ev
	.section	.text._ZN5boost6system14error_categoryD2Ev,"axG",@progbits,_ZN5boost6system14error_categoryD5Ev,comdat
	.align 2
	.weak	_ZN5boost6system14error_categoryD2Ev
	.type	_ZN5boost6system14error_categoryD2Ev, @function
_ZN5boost6system14error_categoryD2Ev:
.LFB1063:
	.file 4 "/usr/local/include/boost/system/error_code.hpp"
	.loc 4 185 0
	.cfi_startproc
	push	rbp
.LCFI15:
	.cfi_def_cfa_offset 16
	.cfi_offset 6, -16
	mov	rbp, rsp
.LCFI16:
	.cfi_def_cfa_register 6
	sub	rsp, 16
	mov	QWORD PTR [rbp-8], rdi
.LBB5:
	.loc 4 185 0
	mov	rax, QWORD PTR [rbp-8]
	mov	QWORD PTR [rax], OFFSET FLAT:_ZTVN5boost6system14error_categoryE+16
	mov	rax, QWORD PTR [rbp-8]
	mov	rdi, rax
	call	_ZN5boost12noncopyable_11noncopyableD2Ev
.LBE5:
	mov	eax, 0
	and	eax, 1
	test	eax, eax
	je	.L8
	.loc 4 185 0 is_stmt 0 discriminator 1
	mov	rax, QWORD PTR [rbp-8]
	mov	rdi, rax
	call	_ZdlPv
.L8:
	.loc 4 185 0
	leave
.LCFI17:
	.cfi_def_cfa 7, 8
	ret
	.cfi_endproc
.LFE1063:
	.size	_ZN5boost6system14error_categoryD2Ev, .-_ZN5boost6system14error_categoryD2Ev
	.weak	_ZN5boost6system14error_categoryD1Ev
	.set	_ZN5boost6system14error_categoryD1Ev,_ZN5boost6system14error_categoryD2Ev
	.section	.text._ZN5boost6system14error_categoryD0Ev,"axG",@progbits,_ZN5boost6system14error_categoryD0Ev,comdat
	.align 2
	.weak	_ZN5boost6system14error_categoryD0Ev
	.type	_ZN5boost6system14error_categoryD0Ev, @function
_ZN5boost6system14error_categoryD0Ev:
.LFB1065:
	.loc 4 185 0 is_stmt 1
	.cfi_startproc
	push	rbp
.LCFI18:
	.cfi_def_cfa_offset 16
	.cfi_offset 6, -16
	mov	rbp, rsp
.LCFI19:
	.cfi_def_cfa_register 6
	sub	rsp, 16
	mov	QWORD PTR [rbp-8], rdi
	.loc 4 185 0
	mov	rax, QWORD PTR [rbp-8]
	mov	rdi, rax
	call	_ZN5boost6system14error_categoryD1Ev
	mov	rax, QWORD PTR [rbp-8]
	mov	rdi, rax
	call	_ZdlPv
	leave
.LCFI20:
	.cfi_def_cfa 7, 8
	ret
	.cfi_endproc
.LFE1065:
	.size	_ZN5boost6system14error_categoryD0Ev, .-_ZN5boost6system14error_categoryD0Ev
	.section	.text._ZNK5boost6system14error_categoryeqERKS1_,"axG",@progbits,_ZNK5boost6system14error_categoryeqERKS1_,comdat
	.align 2
	.weak	_ZNK5boost6system14error_categoryeqERKS1_
	.type	_ZNK5boost6system14error_categoryeqERKS1_, @function
_ZNK5boost6system14error_categoryeqERKS1_:
.LFB1066:
	.loc 4 195 0
	.cfi_startproc
	push	rbp
.LCFI21:
	.cfi_def_cfa_offset 16
	.cfi_offset 6, -16
	mov	rbp, rsp
.LCFI22:
	.cfi_def_cfa_register 6
	mov	QWORD PTR [rbp-8], rdi
	mov	QWORD PTR [rbp-16], rsi
	.loc 4 195 0
	mov	rax, QWORD PTR [rbp-8]
	cmp	rax, QWORD PTR [rbp-16]
	sete	al
	pop	rbp
.LCFI23:
	.cfi_def_cfa 7, 8
	ret
	.cfi_endproc
.LFE1066:
	.size	_ZNK5boost6system14error_categoryeqERKS1_, .-_ZNK5boost6system14error_categoryeqERKS1_
	.local	_ZN5boost6systemL14posix_categoryE
	.comm	_ZN5boost6systemL14posix_categoryE,8,8
	.local	_ZN5boost6systemL10errno_ecatE
	.comm	_ZN5boost6systemL10errno_ecatE,8,8
	.local	_ZN5boost6systemL11native_ecatE
	.comm	_ZN5boost6systemL11native_ecatE,8,8
	.section	.text._ZN5boost6system15error_conditionC2EiRKNS0_14error_categoryE,"axG",@progbits,_ZN5boost6system15error_conditionC5EiRKNS0_14error_categoryE,comdat
	.align 2
	.weak	_ZN5boost6system15error_conditionC2EiRKNS0_14error_categoryE
	.type	_ZN5boost6system15error_conditionC2EiRKNS0_14error_categoryE, @function
_ZN5boost6system15error_conditionC2EiRKNS0_14error_categoryE:
.LFB1076:
	.loc 4 229 0
	.cfi_startproc
	push	rbp
.LCFI24:
	.cfi_def_cfa_offset 16
	.cfi_offset 6, -16
	mov	rbp, rsp
.LCFI25:
	.cfi_def_cfa_register 6
	mov	QWORD PTR [rbp-8], rdi
	mov	DWORD PTR [rbp-12], esi
	mov	QWORD PTR [rbp-24], rdx
.LBB6:
	.loc 4 229 0
	mov	rax, QWORD PTR [rbp-8]
	mov	edx, DWORD PTR [rbp-12]
	mov	DWORD PTR [rax], edx
	mov	rax, QWORD PTR [rbp-8]
	mov	rdx, QWORD PTR [rbp-24]
	mov	QWORD PTR [rax+8], rdx
.LBE6:
	pop	rbp
.LCFI26:
	.cfi_def_cfa 7, 8
	ret
	.cfi_endproc
.LFE1076:
	.size	_ZN5boost6system15error_conditionC2EiRKNS0_14error_categoryE, .-_ZN5boost6system15error_conditionC2EiRKNS0_14error_categoryE
	.weak	_ZN5boost6system15error_conditionC1EiRKNS0_14error_categoryE
	.set	_ZN5boost6system15error_conditionC1EiRKNS0_14error_categoryE,_ZN5boost6system15error_conditionC2EiRKNS0_14error_categoryE
	.section	.text._ZN5boost6systemeqERKNS0_15error_conditionES3_,"axG",@progbits,_ZN5boost6systemeqERKNS0_15error_conditionES3_,comdat
	.weak	_ZN5boost6systemeqERKNS0_15error_conditionES3_
	.type	_ZN5boost6systemeqERKNS0_15error_conditionES3_, @function
_ZN5boost6systemeqERKNS0_15error_conditionES3_:
.LFB1088:
	.loc 4 281 0
	.cfi_startproc
	push	rbp
.LCFI27:
	.cfi_def_cfa_offset 16
	.cfi_offset 6, -16
	mov	rbp, rsp
.LCFI28:
	.cfi_def_cfa_register 6
	mov	QWORD PTR [rbp-8], rdi
	mov	QWORD PTR [rbp-16], rsi
	.loc 4 284 0
	mov	rax, QWORD PTR [rbp-8]
	mov	rdx, QWORD PTR [rax+8]
	mov	rax, QWORD PTR [rbp-16]
	mov	rax, QWORD PTR [rax+8]
	cmp	rdx, rax
	jne	.L17
	.loc 4 284 0 is_stmt 0 discriminator 1
	mov	rax, QWORD PTR [rbp-8]
	mov	edx, DWORD PTR [rax]
	mov	rax, QWORD PTR [rbp-16]
	mov	eax, DWORD PTR [rax]
	cmp	edx, eax
	jne	.L17
	.loc 4 284 0 discriminator 3
	mov	eax, 1
	jmp	.L18
.L17:
	.loc 4 284 0 discriminator 2
	mov	eax, 0
.L18:
	.loc 4 285 0 is_stmt 1 discriminator 4
	pop	rbp
.LCFI29:
	.cfi_def_cfa 7, 8
	ret
	.cfi_endproc
.LFE1088:
	.size	_ZN5boost6systemeqERKNS0_15error_conditionES3_, .-_ZN5boost6systemeqERKNS0_15error_conditionES3_
	.section	.text._ZN5boost6system10error_codeC2EiRKNS0_14error_categoryE,"axG",@progbits,_ZN5boost6system10error_codeC5EiRKNS0_14error_categoryE,comdat
	.align 2
	.weak	_ZN5boost6system10error_codeC2EiRKNS0_14error_categoryE
	.type	_ZN5boost6system10error_codeC2EiRKNS0_14error_categoryE, @function
_ZN5boost6system10error_codeC2EiRKNS0_14error_categoryE:
.LFB1094:
	.loc 4 316 0
	.cfi_startproc
	push	rbp
.LCFI30:
	.cfi_def_cfa_offset 16
	.cfi_offset 6, -16
	mov	rbp, rsp
.LCFI31:
	.cfi_def_cfa_register 6
	mov	QWORD PTR [rbp-8], rdi
	mov	DWORD PTR [rbp-12], esi
	mov	QWORD PTR [rbp-24], rdx
.LBB7:
	.loc 4 316 0
	mov	rax, QWORD PTR [rbp-8]
	mov	edx, DWORD PTR [rbp-12]
	mov	DWORD PTR [rax], edx
	mov	rax, QWORD PTR [rbp-8]
	mov	rdx, QWORD PTR [rbp-24]
	mov	QWORD PTR [rax+8], rdx
.LBE7:
	pop	rbp
.LCFI32:
	.cfi_def_cfa 7, 8
	ret
	.cfi_endproc
.LFE1094:
	.size	_ZN5boost6system10error_codeC2EiRKNS0_14error_categoryE, .-_ZN5boost6system10error_codeC2EiRKNS0_14error_categoryE
	.weak	_ZN5boost6system10error_codeC1EiRKNS0_14error_categoryE
	.set	_ZN5boost6system10error_codeC1EiRKNS0_14error_categoryE,_ZN5boost6system10error_codeC2EiRKNS0_14error_categoryE
	.section	.text._ZNK5boost6system10error_code5valueEv,"axG",@progbits,_ZNK5boost6system10error_code5valueEv,comdat
	.align 2
	.weak	_ZNK5boost6system10error_code5valueEv
	.type	_ZNK5boost6system10error_code5valueEv, @function
_ZNK5boost6system10error_code5valueEv:
.LFB1100:
	.loc 4 347 0
	.cfi_startproc
	push	rbp
.LCFI33:
	.cfi_def_cfa_offset 16
	.cfi_offset 6, -16
	mov	rbp, rsp
.LCFI34:
	.cfi_def_cfa_register 6
	mov	QWORD PTR [rbp-8], rdi
	.loc 4 347 0
	mov	rax, QWORD PTR [rbp-8]
	mov	eax, DWORD PTR [rax]
	pop	rbp
.LCFI35:
	.cfi_def_cfa 7, 8
	ret
	.cfi_endproc
.LFE1100:
	.size	_ZNK5boost6system10error_code5valueEv, .-_ZNK5boost6system10error_code5valueEv
	.section	.text._ZNK5boost6system10error_code8categoryEv,"axG",@progbits,_ZNK5boost6system10error_code8categoryEv,comdat
	.align 2
	.weak	_ZNK5boost6system10error_code8categoryEv
	.type	_ZNK5boost6system10error_code8categoryEv, @function
_ZNK5boost6system10error_code8categoryEv:
.LFB1101:
	.loc 4 348 0
	.cfi_startproc
	push	rbp
.LCFI36:
	.cfi_def_cfa_offset 16
	.cfi_offset 6, -16
	mov	rbp, rsp
.LCFI37:
	.cfi_def_cfa_register 6
	mov	QWORD PTR [rbp-8], rdi
	.loc 4 348 0
	mov	rax, QWORD PTR [rbp-8]
	mov	rax, QWORD PTR [rax+8]
	pop	rbp
.LCFI38:
	.cfi_def_cfa 7, 8
	ret
	.cfi_endproc
.LFE1101:
	.size	_ZNK5boost6system10error_code8categoryEv, .-_ZNK5boost6system10error_code8categoryEv
	.section	.text._ZNK5boost6system10error_code7messageEv,"axG",@progbits,_ZNK5boost6system10error_code7messageEv,comdat
	.align 2
	.weak	_ZNK5boost6system10error_code7messageEv
	.type	_ZNK5boost6system10error_code7messageEv, @function
_ZNK5boost6system10error_code7messageEv:
.LFB1103:
	.loc 4 350 0
	.cfi_startproc
	push	rbp
.LCFI39:
	.cfi_def_cfa_offset 16
	.cfi_offset 6, -16
	mov	rbp, rsp
.LCFI40:
	.cfi_def_cfa_register 6
	push	rbx
	sub	rsp, 24
	.cfi_offset 3, -24
	mov	QWORD PTR [rbp-24], rdi
	mov	QWORD PTR [rbp-32], rsi
	.loc 4 350 0
	mov	rax, QWORD PTR [rbp-32]
	mov	rax, QWORD PTR [rax+8]
	mov	rax, QWORD PTR [rax]
	add	rax, 24
	mov	rbx, QWORD PTR [rax]
	mov	rax, QWORD PTR [rbp-32]
	mov	rdi, rax
	call	_ZNK5boost6system10error_code5valueEv
	mov	edx, eax
	mov	rax, QWORD PTR [rbp-32]
	mov	rcx, QWORD PTR [rax+8]
	mov	rax, QWORD PTR [rbp-24]
	mov	rsi, rcx
	mov	rdi, rax
	call	rbx
	mov	rax, QWORD PTR [rbp-24]
	add	rsp, 24
	pop	rbx
	pop	rbp
.LCFI41:
	.cfi_def_cfa 7, 8
	ret
	.cfi_endproc
.LFE1103:
	.size	_ZNK5boost6system10error_code7messageEv, .-_ZNK5boost6system10error_code7messageEv
	.section	.text._ZNK5boost6system14error_category23default_error_conditionEi,"axG",@progbits,_ZNK5boost6system14error_category23default_error_conditionEi,comdat
	.align 2
	.weak	_ZNK5boost6system14error_category23default_error_conditionEi
	.type	_ZNK5boost6system14error_category23default_error_conditionEi, @function
_ZNK5boost6system14error_category23default_error_conditionEi:
.LFB1121:
	.loc 4 486 0
	.cfi_startproc
	push	rbp
.LCFI42:
	.cfi_def_cfa_offset 16
	.cfi_offset 6, -16
	mov	rbp, rsp
.LCFI43:
	.cfi_def_cfa_register 6
	sub	rsp, 64
	mov	QWORD PTR [rbp-40], rdi
	mov	DWORD PTR [rbp-44], esi
	.loc 4 487 0
	mov	rdx, QWORD PTR [rbp-40]
	mov	ecx, DWORD PTR [rbp-44]
	lea	rax, [rbp-16]
	mov	esi, ecx
	mov	rdi, rax
	call	_ZN5boost6system15error_conditionC1EiRKNS0_14error_categoryE
	mov	rax, QWORD PTR [rbp-16]
	mov	QWORD PTR [rbp-32], rax
	mov	rax, QWORD PTR [rbp-8]
	mov	QWORD PTR [rbp-24], rax
	mov	eax, DWORD PTR [rbp-32]
	mov	rdx, QWORD PTR [rbp-24]
	.loc 4 488 0
	leave
.LCFI44:
	.cfi_def_cfa 7, 8
	ret
	.cfi_endproc
.LFE1121:
	.size	_ZNK5boost6system14error_category23default_error_conditionEi, .-_ZNK5boost6system14error_category23default_error_conditionEi
	.section	.text._ZNK5boost6system14error_category10equivalentEiRKNS0_15error_conditionE,"axG",@progbits,_ZNK5boost6system14error_category10equivalentEiRKNS0_15error_conditionE,comdat
	.align 2
	.weak	_ZNK5boost6system14error_category10equivalentEiRKNS0_15error_conditionE
	.type	_ZNK5boost6system14error_category10equivalentEiRKNS0_15error_conditionE, @function
_ZNK5boost6system14error_category10equivalentEiRKNS0_15error_conditionE:
.LFB1122:
	.loc 4 492 0
	.cfi_startproc
	push	rbp
.LCFI45:
	.cfi_def_cfa_offset 16
	.cfi_offset 6, -16
	mov	rbp, rsp
.LCFI46:
	.cfi_def_cfa_register 6
	sub	rsp, 64
	mov	QWORD PTR [rbp-24], rdi
	mov	DWORD PTR [rbp-28], esi
	mov	QWORD PTR [rbp-40], rdx
	.loc 4 493 0
	mov	rax, QWORD PTR [rbp-24]
	mov	rax, QWORD PTR [rax]
	add	rax, 32
	mov	rax, QWORD PTR [rax]
	mov	ecx, DWORD PTR [rbp-28]
	mov	rdx, QWORD PTR [rbp-24]
	mov	esi, ecx
	mov	rdi, rdx
	call	rax
	mov	ecx, eax
	mov	rax, rdx
	mov	DWORD PTR [rbp-64], ecx
	mov	QWORD PTR [rbp-56], rax
	mov	rax, QWORD PTR [rbp-64]
	mov	QWORD PTR [rbp-16], rax
	mov	rax, QWORD PTR [rbp-56]
	mov	QWORD PTR [rbp-8], rax
	mov	rdx, QWORD PTR [rbp-40]
	lea	rax, [rbp-16]
	mov	rsi, rdx
	mov	rdi, rax
	call	_ZN5boost6systemeqERKNS0_15error_conditionES3_
	.loc 4 494 0
	leave
.LCFI47:
	.cfi_def_cfa 7, 8
	ret
	.cfi_endproc
.LFE1122:
	.size	_ZNK5boost6system14error_category10equivalentEiRKNS0_15error_conditionE, .-_ZNK5boost6system14error_category10equivalentEiRKNS0_15error_conditionE
	.section	.text._ZNK5boost6system14error_category10equivalentERKNS0_10error_codeEi,"axG",@progbits,_ZNK5boost6system14error_category10equivalentERKNS0_10error_codeEi,comdat
	.align 2
	.weak	_ZNK5boost6system14error_category10equivalentERKNS0_10error_codeEi
	.type	_ZNK5boost6system14error_category10equivalentERKNS0_10error_codeEi, @function
_ZNK5boost6system14error_category10equivalentERKNS0_10error_codeEi:
.LFB1123:
	.loc 4 498 0
	.cfi_startproc
	push	rbp
.LCFI48:
	.cfi_def_cfa_offset 16
	.cfi_offset 6, -16
	mov	rbp, rsp
.LCFI49:
	.cfi_def_cfa_register 6
	sub	rsp, 32
	mov	QWORD PTR [rbp-8], rdi
	mov	QWORD PTR [rbp-16], rsi
	mov	DWORD PTR [rbp-20], edx
	.loc 4 499 0
	mov	rax, QWORD PTR [rbp-16]
	mov	rdi, rax
	call	_ZNK5boost6system10error_code8categoryEv
	mov	rdx, rax
	mov	rax, QWORD PTR [rbp-8]
	mov	rsi, rdx
	mov	rdi, rax
	call	_ZNK5boost6system14error_categoryeqERKS1_
	test	al, al
	je	.L32
	.loc 4 499 0 is_stmt 0 discriminator 1
	mov	rax, QWORD PTR [rbp-16]
	mov	rdi, rax
	call	_ZNK5boost6system10error_code5valueEv
	cmp	eax, DWORD PTR [rbp-20]
	jne	.L32
	.loc 4 499 0 discriminator 3
	mov	eax, 1
	jmp	.L33
.L32:
	.loc 4 499 0 discriminator 2
	mov	eax, 0
.L33:
	.loc 4 500 0 is_stmt 1 discriminator 4
	leave
.LCFI50:
	.cfi_def_cfa 7, 8
	ret
	.cfi_endproc
.LFE1123:
	.size	_ZNK5boost6system14error_category10equivalentERKNS0_10error_codeEi, .-_ZNK5boost6system14error_category10equivalentERKNS0_10error_codeEi
	.section	.text._ZN5boost6system12system_errorC2ENS0_10error_codeEPKc,"axG",@progbits,_ZN5boost6system12system_errorC5ENS0_10error_codeEPKc,comdat
	.align 2
	.weak	_ZN5boost6system12system_errorC2ENS0_10error_codeEPKc
	.type	_ZN5boost6system12system_errorC2ENS0_10error_codeEPKc, @function
_ZN5boost6system12system_errorC2ENS0_10error_codeEPKc:
.LFB1131:
	.file 5 "/usr/local/include/boost/system/system_error.hpp"
	.loc 5 33 0
	.cfi_startproc
	.cfi_personality 0x3,__gxx_personality_v0
	.cfi_lsda 0x3,.LLSDA1131
	push	rbp
.LCFI51:
	.cfi_def_cfa_offset 16
	.cfi_offset 6, -16
	mov	rbp, rsp
.LCFI52:
	.cfi_def_cfa_register 6
	push	rbx
	sub	rsp, 56
	.cfi_offset 3, -24
	mov	QWORD PTR [rbp-40], rdi
	mov	rax, rdx
	mov	QWORD PTR [rbp-64], rcx
	mov	DWORD PTR [rbp-56], esi
	mov	QWORD PTR [rbp-48], rax
.LBB8:
	.loc 5 34 0
	lea	rax, [rbp-17]
	mov	rdi, rax
	call	_ZNSaIcEC1Ev
	lea	rdx, [rbp-17]
	mov	rcx, QWORD PTR [rbp-64]
	lea	rax, [rbp-32]
	mov	rsi, rcx
	mov	rdi, rax
.LEHB0:
	call	_ZNSsC1EPKcRKSaIcE
.LEHE0:
	.loc 5 34 0 is_stmt 0 discriminator 1
	mov	rax, QWORD PTR [rbp-40]
	lea	rdx, [rbp-32]
	mov	rsi, rdx
	mov	rdi, rax
.LEHB1:
	call	_ZNSt13runtime_errorC2ERKSs
.LEHE1:
	.loc 5 34 0 discriminator 2
	lea	rax, [rbp-32]
	mov	rdi, rax
.LEHB2:
	call	_ZNSsD1Ev
.LEHE2:
	.loc 5 34 0 discriminator 3
	lea	rax, [rbp-17]
	mov	rdi, rax
	call	_ZNSaIcED1Ev
	mov	rax, QWORD PTR [rbp-40]
	mov	QWORD PTR [rax], OFFSET FLAT:_ZTVN5boost6system12system_errorE+16
	mov	rax, QWORD PTR [rbp-40]
	mov	rdx, QWORD PTR [rbp-56]
	mov	QWORD PTR [rax+16], rdx
	mov	rdx, QWORD PTR [rbp-48]
	mov	QWORD PTR [rax+24], rdx
	mov	rax, QWORD PTR [rbp-40]
	add	rax, 32
	mov	rdi, rax
.LEHB3:
	call	_ZNSsC1Ev
.LEHE3:
.LBE8:
	.loc 5 34 0
	jmp	.L42
.L40:
	mov	rbx, rax
.LBB9:
	lea	rax, [rbp-32]
	mov	rdi, rax
	call	_ZNSsD1Ev
	jmp	.L37
.L39:
	mov	rbx, rax
.L37:
	lea	rax, [rbp-17]
	mov	rdi, rax
	call	_ZNSaIcED1Ev
	mov	rax, rbx
	mov	rdi, rax
.LEHB4:
	call	_Unwind_Resume
.L41:
	mov	rbx, rax
	mov	rax, QWORD PTR [rbp-40]
	mov	rdi, rax
	call	_ZNSt13runtime_errorD2Ev
	mov	rax, rbx
	mov	rdi, rax
	call	_Unwind_Resume
.LEHE4:
.L42:
.LBE9:
	add	rsp, 56
	pop	rbx
	pop	rbp
.LCFI53:
	.cfi_def_cfa 7, 8
	ret
	.cfi_endproc
.LFE1131:
	.globl	__gxx_personality_v0
	.section	.gcc_except_table,"a",@progbits
.LLSDA1131:
	.byte	0xff
	.byte	0xff
	.byte	0x1
	.uleb128 .LLSDACSE1131-.LLSDACSB1131
.LLSDACSB1131:
	.uleb128 .LEHB0-.LFB1131
	.uleb128 .LEHE0-.LEHB0
	.uleb128 .L39-.LFB1131
	.uleb128 0
	.uleb128 .LEHB1-.LFB1131
	.uleb128 .LEHE1-.LEHB1
	.uleb128 .L40-.LFB1131
	.uleb128 0
	.uleb128 .LEHB2-.LFB1131
	.uleb128 .LEHE2-.LEHB2
	.uleb128 .L39-.LFB1131
	.uleb128 0
	.uleb128 .LEHB3-.LFB1131
	.uleb128 .LEHE3-.LEHB3
	.uleb128 .L41-.LFB1131
	.uleb128 0
	.uleb128 .LEHB4-.LFB1131
	.uleb128 .LEHE4-.LEHB4
	.uleb128 0
	.uleb128 0
.LLSDACSE1131:
	.section	.text._ZN5boost6system12system_errorC2ENS0_10error_codeEPKc,"axG",@progbits,_ZN5boost6system12system_errorC5ENS0_10error_codeEPKc,comdat
	.size	_ZN5boost6system12system_errorC2ENS0_10error_codeEPKc, .-_ZN5boost6system12system_errorC2ENS0_10error_codeEPKc
	.weak	_ZN5boost6system12system_errorC1ENS0_10error_codeEPKc
	.set	_ZN5boost6system12system_errorC1ENS0_10error_codeEPKc,_ZN5boost6system12system_errorC2ENS0_10error_codeEPKc
	.section	.text._ZN5boost6system12system_errorD2Ev,"axG",@progbits,_ZN5boost6system12system_errorD5Ev,comdat
	.align 2
	.weak	_ZN5boost6system12system_errorD2Ev
	.type	_ZN5boost6system12system_errorD2Ev, @function
_ZN5boost6system12system_errorD2Ev:
.LFB1143:
	.loc 5 47 0 is_stmt 1
	.cfi_startproc
	.cfi_personality 0x3,__gxx_personality_v0
	.cfi_lsda 0x3,.LLSDA1143
	push	rbp
.LCFI54:
	.cfi_def_cfa_offset 16
	.cfi_offset 6, -16
	mov	rbp, rsp
.LCFI55:
	.cfi_def_cfa_register 6
	push	r12
	push	rbx
	sub	rsp, 16
	.cfi_offset 12, -24
	.cfi_offset 3, -32
	mov	QWORD PTR [rbp-24], rdi
.LBB10:
	.loc 5 47 0
	mov	rax, QWORD PTR [rbp-24]
	mov	QWORD PTR [rax], OFFSET FLAT:_ZTVN5boost6system12system_errorE+16
	mov	rax, QWORD PTR [rbp-24]
	add	rax, 32
	mov	rdi, rax
.LEHB5:
	call	_ZNSsD1Ev
.LEHE5:
	.loc 5 47 0 is_stmt 0 discriminator 1
	mov	rax, QWORD PTR [rbp-24]
	mov	rdi, rax
	call	_ZNSt13runtime_errorD2Ev
.LBE10:
	mov	eax, 0
	and	eax, 1
	test	eax, eax
	je	.L43
	mov	rax, QWORD PTR [rbp-24]
	mov	rdi, rax
	call	_ZdlPv
	jmp	.L43
.L48:
	mov	r12, rax
	mov	rbx, rdx
.LBB11:
	.loc 5 47 0
	mov	rax, QWORD PTR [rbp-24]
	mov	rdi, rax
	call	_ZNSt13runtime_errorD2Ev
	mov	rax, r12
	mov	rdx, rbx
	cmp	rdx, -1
	je	.L47
	mov	rdi, rax
.LEHB6:
	call	_Unwind_Resume
.L47:
.LBE11:
	mov	rdi, rax
	call	__cxa_call_unexpected
.LEHE6:
.L43:
	add	rsp, 16
	pop	rbx
	pop	r12
	pop	rbp
.LCFI56:
	.cfi_def_cfa 7, 8
	ret
	.cfi_endproc
.LFE1143:
	.section	.gcc_except_table
	.align 4
.LLSDA1143:
	.byte	0xff
	.byte	0x3
	.uleb128 .LLSDATT1143-.LLSDATTD1143
.LLSDATTD1143:
	.byte	0x1
	.uleb128 .LLSDACSE1143-.LLSDACSB1143
.LLSDACSB1143:
	.uleb128 .LEHB5-.LFB1143
	.uleb128 .LEHE5-.LEHB5
	.uleb128 .L48-.LFB1143
	.uleb128 0x3
	.uleb128 .LEHB6-.LFB1143
	.uleb128 .LEHE6-.LEHB6
	.uleb128 0
	.uleb128 0
.LLSDACSE1143:
	.byte	0x7f
	.byte	0
	.byte	0
	.byte	0x7d
	.align 4
.LLSDATT1143:
	.byte	0
	.section	.text._ZN5boost6system12system_errorD2Ev,"axG",@progbits,_ZN5boost6system12system_errorD5Ev,comdat
	.size	_ZN5boost6system12system_errorD2Ev, .-_ZN5boost6system12system_errorD2Ev
	.weak	_ZN5boost6system12system_errorD1Ev
	.set	_ZN5boost6system12system_errorD1Ev,_ZN5boost6system12system_errorD2Ev
	.section	.text._ZN5boost6system12system_errorD0Ev,"axG",@progbits,_ZN5boost6system12system_errorD0Ev,comdat
	.align 2
	.weak	_ZN5boost6system12system_errorD0Ev
	.type	_ZN5boost6system12system_errorD0Ev, @function
_ZN5boost6system12system_errorD0Ev:
.LFB1145:
	.loc 5 47 0 is_stmt 1
	.cfi_startproc
	push	rbp
.LCFI57:
	.cfi_def_cfa_offset 16
	.cfi_offset 6, -16
	mov	rbp, rsp
.LCFI58:
	.cfi_def_cfa_register 6
	sub	rsp, 16
	mov	QWORD PTR [rbp-8], rdi
	.loc 5 47 0
	mov	rax, QWORD PTR [rbp-8]
	mov	rdi, rax
	call	_ZN5boost6system12system_errorD1Ev
	mov	rax, QWORD PTR [rbp-8]
	mov	rdi, rax
	call	_ZdlPv
	leave
.LCFI59:
	.cfi_def_cfa 7, 8
	ret
	.cfi_endproc
.LFE1145:
	.size	_ZN5boost6system12system_errorD0Ev, .-_ZN5boost6system12system_errorD0Ev
	.section	.rodata
.LC0:
	.string	": "
	.section	.text._ZNK5boost6system12system_error4whatEv,"axG",@progbits,_ZNK5boost6system12system_error4whatEv,comdat
	.align 2
	.weak	_ZNK5boost6system12system_error4whatEv
	.type	_ZNK5boost6system12system_error4whatEv, @function
_ZNK5boost6system12system_error4whatEv:
.LFB1147:
	.loc 5 61 0
	.cfi_startproc
	.cfi_personality 0x3,__gxx_personality_v0
	.cfi_lsda 0x3,.LLSDA1147
	push	rbp
.LCFI60:
	.cfi_def_cfa_offset 16
	.cfi_offset 6, -16
	mov	rbp, rsp
.LCFI61:
	.cfi_def_cfa_register 6
	push	rbx
	sub	rsp, 40
	.cfi_offset 3, -24
	mov	QWORD PTR [rbp-40], rdi
	.loc 5 62 0
	mov	rax, QWORD PTR [rbp-40]
	add	rax, 32
	mov	rdi, rax
.LEHB7:
	call	_ZNKSs5emptyEv
.LEHE7:
	test	al, al
	je	.L52
	.loc 5 66 0
	mov	rax, QWORD PTR [rbp-40]
	mov	rdi, rax
	call	_ZNKSt13runtime_error4whatEv
	mov	rdx, QWORD PTR [rbp-40]
	add	rdx, 32
	mov	rsi, rax
	mov	rdi, rdx
.LEHB8:
	call	_ZNSsaSEPKc
	.loc 5 67 0
	mov	rax, QWORD PTR [rbp-40]
	add	rax, 32
	mov	rdi, rax
	call	_ZNKSs5emptyEv
	xor	eax, 1
	test	al, al
	je	.L53
	.loc 5 67 0 is_stmt 0 discriminator 1
	mov	rax, QWORD PTR [rbp-40]
	add	rax, 32
	mov	esi, OFFSET FLAT:.LC0
	mov	rdi, rax
	call	_ZNSspLEPKc
.L53:
	.loc 5 68 0 is_stmt 1
	mov	rax, QWORD PTR [rbp-40]
	lea	rdx, [rax+16]
	lea	rax, [rbp-32]
	mov	rsi, rdx
	mov	rdi, rax
	call	_ZNK5boost6system10error_code7messageEv
.LEHE8:
	.loc 5 68 0 is_stmt 0 discriminator 1
	mov	rax, QWORD PTR [rbp-40]
	lea	rdx, [rax+32]
	lea	rax, [rbp-32]
	mov	rsi, rax
	mov	rdi, rdx
.LEHB9:
	call	_ZNSspLERKSs
.LEHE9:
	lea	rax, [rbp-32]
	mov	rdi, rax
.LEHB10:
	call	_ZNSsD1Ev
.LEHE10:
.L52:
	.loc 5 72 0 is_stmt 1
	mov	rax, QWORD PTR [rbp-40]
	add	rax, 32
	mov	rdi, rax
.LEHB11:
	call	_ZNKSs5c_strEv
.LEHE11:
	mov	rbx, rax
.L54:
	mov	rax, rbx
	jmp	.L62
.L61:
	mov	rbx, rax
	.loc 5 68 0
	lea	rax, [rbp-32]
	mov	rdi, rax
	call	_ZNSsD1Ev
	mov	rax, rbx
	jmp	.L56
.L60:
.L56:
	.loc 5 70 0
	mov	rdi, rax
	call	__cxa_begin_catch
	mov	rax, QWORD PTR [rbp-40]
	mov	rdi, rax
	call	_ZNKSt13runtime_error4whatEv
	mov	rbx, rax
.LEHB12:
	call	__cxa_end_catch
.LEHE12:
	jmp	.L54
.L59:
	cmp	rdx, -1
	je	.L58
	mov	rdi, rax
.LEHB13:
	call	_Unwind_Resume
.L58:
	.loc 5 59 0
	mov	rdi, rax
	call	__cxa_call_unexpected
.LEHE13:
.L62:
	.loc 5 73 0
	add	rsp, 40
	pop	rbx
	pop	rbp
.LCFI62:
	.cfi_def_cfa 7, 8
	ret
	.cfi_endproc
.LFE1147:
	.section	.gcc_except_table
	.align 4
.LLSDA1147:
	.byte	0xff
	.byte	0x3
	.uleb128 .LLSDATT1147-.LLSDATTD1147
.LLSDATTD1147:
	.byte	0x1
	.uleb128 .LLSDACSE1147-.LLSDACSB1147
.LLSDACSB1147:
	.uleb128 .LEHB7-.LFB1147
	.uleb128 .LEHE7-.LEHB7
	.uleb128 .L59-.LFB1147
	.uleb128 0x1
	.uleb128 .LEHB8-.LFB1147
	.uleb128 .LEHE8-.LEHB8
	.uleb128 .L60-.LFB1147
	.uleb128 0x3
	.uleb128 .LEHB9-.LFB1147
	.uleb128 .LEHE9-.LEHB9
	.uleb128 .L61-.LFB1147
	.uleb128 0x5
	.uleb128 .LEHB10-.LFB1147
	.uleb128 .LEHE10-.LEHB10
	.uleb128 .L60-.LFB1147
	.uleb128 0x3
	.uleb128 .LEHB11-.LFB1147
	.uleb128 .LEHE11-.LEHB11
	.uleb128 .L59-.LFB1147
	.uleb128 0x1
	.uleb128 .LEHB12-.LFB1147
	.uleb128 .LEHE12-.LEHB12
	.uleb128 .L59-.LFB1147
	.uleb128 0x1
	.uleb128 .LEHB13-.LFB1147
	.uleb128 .LEHE13-.LEHB13
	.uleb128 0
	.uleb128 0
.LLSDACSE1147:
	.byte	0x7f
	.byte	0
	.byte	0x1
	.byte	0
	.byte	0
	.byte	0x7d
	.align 4
	.long	0

.LLSDATT1147:
	.byte	0
	.section	.text._ZNK5boost6system12system_error4whatEv,"axG",@progbits,_ZNK5boost6system12system_error4whatEv,comdat
	.size	_ZNK5boost6system12system_error4whatEv, .-_ZNK5boost6system12system_error4whatEv
	.section	.text._ZN5boost16thread_exceptionC2EiPKc,"axG",@progbits,_ZN5boost16thread_exceptionC5EiPKc,comdat
	.align 2
	.weak	_ZN5boost16thread_exceptionC2EiPKc
	.type	_ZN5boost16thread_exceptionC2EiPKc, @function
_ZN5boost16thread_exceptionC2EiPKc:
.LFB1155:
	.file 6 "/usr/local/include/boost/thread/exceptions.hpp"
	.loc 6 50 0
	.cfi_startproc
	.cfi_personality 0x3,__gxx_personality_v0
	.cfi_lsda 0x3,.LLSDA1155
	push	rbp
.LCFI63:
	.cfi_def_cfa_offset 16
	.cfi_offset 6, -16
	mov	rbp, rsp
.LCFI64:
	.cfi_def_cfa_register 6
	sub	rsp, 48
	mov	QWORD PTR [rbp-24], rdi
	mov	DWORD PTR [rbp-28], esi
	mov	QWORD PTR [rbp-40], rdx
.LEHB14:
.LBB12:
	.loc 6 51 0
	call	_ZN5boost6system15system_categoryEv
.LEHE14:
	mov	rdx, rax
	mov	ecx, DWORD PTR [rbp-28]
	lea	rax, [rbp-16]
	mov	esi, ecx
	mov	rdi, rax
	call	_ZN5boost6system10error_codeC1EiRKNS0_14error_categoryE
	mov	rax, QWORD PTR [rbp-24]
	mov	rcx, QWORD PTR [rbp-40]
	mov	esi, DWORD PTR [rbp-16]
	mov	rdx, QWORD PTR [rbp-8]
	mov	rdi, rax
.LEHB15:
	call	_ZN5boost6system12system_errorC2ENS0_10error_codeEPKc
.LEHE15:
	.loc 6 51 0 is_stmt 0 discriminator 1
	mov	rax, QWORD PTR [rbp-24]
	mov	QWORD PTR [rax], OFFSET FLAT:_ZTVN5boost16thread_exceptionE+16
	jmp	.L66
.L65:
	mov	rdi, rax
.LEHB16:
	call	_Unwind_Resume
.LEHE16:
.L66:
.LBE12:
	.loc 6 53 0 is_stmt 1
	leave
.LCFI65:
	.cfi_def_cfa 7, 8
	ret
	.cfi_endproc
.LFE1155:
	.section	.gcc_except_table
.LLSDA1155:
	.byte	0xff
	.byte	0xff
	.byte	0x1
	.uleb128 .LLSDACSE1155-.LLSDACSB1155
.LLSDACSB1155:
	.uleb128 .LEHB14-.LFB1155
	.uleb128 .LEHE14-.LEHB14
	.uleb128 0
	.uleb128 0
	.uleb128 .LEHB15-.LFB1155
	.uleb128 .LEHE15-.LEHB15
	.uleb128 .L65-.LFB1155
	.uleb128 0
	.uleb128 .LEHB16-.LFB1155
	.uleb128 .LEHE16-.LEHB16
	.uleb128 0
	.uleb128 0
.LLSDACSE1155:
	.section	.text._ZN5boost16thread_exceptionC2EiPKc,"axG",@progbits,_ZN5boost16thread_exceptionC5EiPKc,comdat
	.size	_ZN5boost16thread_exceptionC2EiPKc, .-_ZN5boost16thread_exceptionC2EiPKc
	.weak	_ZN5boost16thread_exceptionC1EiPKc
	.set	_ZN5boost16thread_exceptionC1EiPKc,_ZN5boost16thread_exceptionC2EiPKc
	.section	.text._ZN5boost16thread_exceptionD2Ev,"axG",@progbits,_ZN5boost16thread_exceptionD5Ev,comdat
	.align 2
	.weak	_ZN5boost16thread_exceptionD2Ev
	.type	_ZN5boost16thread_exceptionD2Ev, @function
_ZN5boost16thread_exceptionD2Ev:
.LFB1161:
	.loc 6 59 0
	.cfi_startproc
	push	rbp
.LCFI66:
	.cfi_def_cfa_offset 16
	.cfi_offset 6, -16
	mov	rbp, rsp
.LCFI67:
	.cfi_def_cfa_register 6
	sub	rsp, 16
	mov	QWORD PTR [rbp-8], rdi
.LBB13:
	.loc 6 60 0
	mov	rax, QWORD PTR [rbp-8]
	mov	QWORD PTR [rax], OFFSET FLAT:_ZTVN5boost16thread_exceptionE+16
	mov	rax, QWORD PTR [rbp-8]
	mov	rdi, rax
	call	_ZN5boost6system12system_errorD2Ev
.LBE13:
	mov	eax, 0
	and	eax, 1
	test	eax, eax
	je	.L67
	.loc 6 60 0 is_stmt 0 discriminator 1
	mov	rax, QWORD PTR [rbp-8]
	mov	rdi, rax
	call	_ZdlPv
.L67:
	.loc 6 60 0
	leave
.LCFI68:
	.cfi_def_cfa 7, 8
	ret
	.cfi_endproc
.LFE1161:
	.size	_ZN5boost16thread_exceptionD2Ev, .-_ZN5boost16thread_exceptionD2Ev
	.weak	_ZN5boost16thread_exceptionD1Ev
	.set	_ZN5boost16thread_exceptionD1Ev,_ZN5boost16thread_exceptionD2Ev
	.section	.text._ZN5boost16thread_exceptionD0Ev,"axG",@progbits,_ZN5boost16thread_exceptionD0Ev,comdat
	.align 2
	.weak	_ZN5boost16thread_exceptionD0Ev
	.type	_ZN5boost16thread_exceptionD0Ev, @function
_ZN5boost16thread_exceptionD0Ev:
.LFB1163:
	.loc 6 59 0 is_stmt 1
	.cfi_startproc
	push	rbp
.LCFI69:
	.cfi_def_cfa_offset 16
	.cfi_offset 6, -16
	mov	rbp, rsp
.LCFI70:
	.cfi_def_cfa_register 6
	sub	rsp, 16
	mov	QWORD PTR [rbp-8], rdi
	.loc 6 60 0
	mov	rax, QWORD PTR [rbp-8]
	mov	rdi, rax
	call	_ZN5boost16thread_exceptionD1Ev
	mov	rax, QWORD PTR [rbp-8]
	mov	rdi, rax
	call	_ZdlPv
	leave
.LCFI71:
	.cfi_def_cfa 7, 8
	ret
	.cfi_endproc
.LFE1163:
	.size	_ZN5boost16thread_exceptionD0Ev, .-_ZN5boost16thread_exceptionD0Ev
	.section	.text._ZN5boost15condition_errorC2EiPKc,"axG",@progbits,_ZN5boost15condition_errorC5EiPKc,comdat
	.align 2
	.weak	_ZN5boost15condition_errorC2EiPKc
	.type	_ZN5boost15condition_errorC2EiPKc, @function
_ZN5boost15condition_errorC2EiPKc:
.LFB1172:
	.loc 6 83 0
	.cfi_startproc
	.cfi_personality 0x3,__gxx_personality_v0
	.cfi_lsda 0x3,.LLSDA1172
	push	rbp
.LCFI72:
	.cfi_def_cfa_offset 16
	.cfi_offset 6, -16
	mov	rbp, rsp
.LCFI73:
	.cfi_def_cfa_register 6
	sub	rsp, 48
	mov	QWORD PTR [rbp-24], rdi
	mov	DWORD PTR [rbp-28], esi
	mov	QWORD PTR [rbp-40], rdx
.LEHB17:
.LBB14:
	.loc 6 84 0
	call	_ZN5boost6system15system_categoryEv
.LEHE17:
	mov	rdx, rax
	mov	ecx, DWORD PTR [rbp-28]
	lea	rax, [rbp-16]
	mov	esi, ecx
	mov	rdi, rax
	call	_ZN5boost6system10error_codeC1EiRKNS0_14error_categoryE
	mov	rax, QWORD PTR [rbp-24]
	mov	rcx, QWORD PTR [rbp-40]
	mov	esi, DWORD PTR [rbp-16]
	mov	rdx, QWORD PTR [rbp-8]
	mov	rdi, rax
.LEHB18:
	call	_ZN5boost6system12system_errorC2ENS0_10error_codeEPKc
.LEHE18:
	.loc 6 84 0 is_stmt 0 discriminator 1
	mov	rax, QWORD PTR [rbp-24]
	mov	QWORD PTR [rax], OFFSET FLAT:_ZTVN5boost15condition_errorE+16
	jmp	.L75
.L74:
	mov	rdi, rax
.LEHB19:
	call	_Unwind_Resume
.LEHE19:
.L75:
.LBE14:
	.loc 6 86 0 is_stmt 1
	leave
.LCFI74:
	.cfi_def_cfa 7, 8
	ret
	.cfi_endproc
.LFE1172:
	.section	.gcc_except_table
.LLSDA1172:
	.byte	0xff
	.byte	0xff
	.byte	0x1
	.uleb128 .LLSDACSE1172-.LLSDACSB1172
.LLSDACSB1172:
	.uleb128 .LEHB17-.LFB1172
	.uleb128 .LEHE17-.LEHB17
	.uleb128 0
	.uleb128 0
	.uleb128 .LEHB18-.LFB1172
	.uleb128 .LEHE18-.LEHB18
	.uleb128 .L74-.LFB1172
	.uleb128 0
	.uleb128 .LEHB19-.LFB1172
	.uleb128 .LEHE19-.LEHB19
	.uleb128 0
	.uleb128 0
.LLSDACSE1172:
	.section	.text._ZN5boost15condition_errorC2EiPKc,"axG",@progbits,_ZN5boost15condition_errorC5EiPKc,comdat
	.size	_ZN5boost15condition_errorC2EiPKc, .-_ZN5boost15condition_errorC2EiPKc
	.weak	_ZN5boost15condition_errorC1EiPKc
	.set	_ZN5boost15condition_errorC1EiPKc,_ZN5boost15condition_errorC2EiPKc
	.section	.text._ZN5boost10lock_errorC2EiPKc,"axG",@progbits,_ZN5boost10lock_errorC5EiPKc,comdat
	.align 2
	.weak	_ZN5boost10lock_errorC2EiPKc
	.type	_ZN5boost10lock_errorC2EiPKc, @function
_ZN5boost10lock_errorC2EiPKc:
.LFB1184:
	.loc 6 107 0
	.cfi_startproc
	push	rbp
.LCFI75:
	.cfi_def_cfa_offset 16
	.cfi_offset 6, -16
	mov	rbp, rsp
.LCFI76:
	.cfi_def_cfa_register 6
	sub	rsp, 32
	mov	QWORD PTR [rbp-8], rdi
	mov	DWORD PTR [rbp-12], esi
	mov	QWORD PTR [rbp-24], rdx
.LBB15:
	.loc 6 108 0
	mov	rax, QWORD PTR [rbp-8]
	mov	rdx, QWORD PTR [rbp-24]
	mov	ecx, DWORD PTR [rbp-12]
	mov	esi, ecx
	mov	rdi, rax
	call	_ZN5boost16thread_exceptionC2EiPKc
	mov	rax, QWORD PTR [rbp-8]
	mov	QWORD PTR [rax], OFFSET FLAT:_ZTVN5boost10lock_errorE+16
.LBE15:
	.loc 6 110 0
	leave
.LCFI77:
	.cfi_def_cfa 7, 8
	ret
	.cfi_endproc
.LFE1184:
	.size	_ZN5boost10lock_errorC2EiPKc, .-_ZN5boost10lock_errorC2EiPKc
	.weak	_ZN5boost10lock_errorC1EiPKc
	.set	_ZN5boost10lock_errorC1EiPKc,_ZN5boost10lock_errorC2EiPKc
	.section	.text._ZN5boost10lock_errorD2Ev,"axG",@progbits,_ZN5boost10lock_errorD5Ev,comdat
	.align 2
	.weak	_ZN5boost10lock_errorD2Ev
	.type	_ZN5boost10lock_errorD2Ev, @function
_ZN5boost10lock_errorD2Ev:
.LFB1190:
	.loc 6 116 0
	.cfi_startproc
	push	rbp
.LCFI78:
	.cfi_def_cfa_offset 16
	.cfi_offset 6, -16
	mov	rbp, rsp
.LCFI79:
	.cfi_def_cfa_register 6
	sub	rsp, 16
	mov	QWORD PTR [rbp-8], rdi
.LBB16:
	.loc 6 117 0
	mov	rax, QWORD PTR [rbp-8]
	mov	QWORD PTR [rax], OFFSET FLAT:_ZTVN5boost10lock_errorE+16
	mov	rax, QWORD PTR [rbp-8]
	mov	rdi, rax
	call	_ZN5boost16thread_exceptionD2Ev
.LBE16:
	mov	eax, 0
	and	eax, 1
	test	eax, eax
	je	.L77
	.loc 6 117 0 is_stmt 0 discriminator 1
	mov	rax, QWORD PTR [rbp-8]
	mov	rdi, rax
	call	_ZdlPv
.L77:
	.loc 6 117 0
	leave
.LCFI80:
	.cfi_def_cfa 7, 8
	ret
	.cfi_endproc
.LFE1190:
	.size	_ZN5boost10lock_errorD2Ev, .-_ZN5boost10lock_errorD2Ev
	.weak	_ZN5boost10lock_errorD1Ev
	.set	_ZN5boost10lock_errorD1Ev,_ZN5boost10lock_errorD2Ev
	.section	.text._ZN5boost10lock_errorD0Ev,"axG",@progbits,_ZN5boost10lock_errorD0Ev,comdat
	.align 2
	.weak	_ZN5boost10lock_errorD0Ev
	.type	_ZN5boost10lock_errorD0Ev, @function
_ZN5boost10lock_errorD0Ev:
.LFB1192:
	.loc 6 116 0 is_stmt 1
	.cfi_startproc
	push	rbp
.LCFI81:
	.cfi_def_cfa_offset 16
	.cfi_offset 6, -16
	mov	rbp, rsp
.LCFI82:
	.cfi_def_cfa_register 6
	sub	rsp, 16
	mov	QWORD PTR [rbp-8], rdi
	.loc 6 117 0
	mov	rax, QWORD PTR [rbp-8]
	mov	rdi, rax
	call	_ZN5boost10lock_errorD1Ev
	mov	rax, QWORD PTR [rbp-8]
	mov	rdi, rax
	call	_ZdlPv
	leave
.LCFI83:
	.cfi_def_cfa 7, 8
	ret
	.cfi_endproc
.LFE1192:
	.size	_ZN5boost10lock_errorD0Ev, .-_ZN5boost10lock_errorD0Ev
	.section	.rodata
.LC1:
	.string	"boost::thread_resource_error"
	.section	.text._ZN5boost21thread_resource_errorC2Ev,"axG",@progbits,_ZN5boost21thread_resource_errorC5Ev,comdat
	.align 2
	.weak	_ZN5boost21thread_resource_errorC2Ev
	.type	_ZN5boost21thread_resource_errorC2Ev, @function
_ZN5boost21thread_resource_errorC2Ev:
.LFB1194:
	.loc 6 126 0
	.cfi_startproc
	push	rbp
.LCFI84:
	.cfi_def_cfa_offset 16
	.cfi_offset 6, -16
	mov	rbp, rsp
.LCFI85:
	.cfi_def_cfa_register 6
	sub	rsp, 16
	mov	QWORD PTR [rbp-8], rdi
.LBB17:
	.loc 6 127 0
	mov	rax, QWORD PTR [rbp-8]
	mov	edx, OFFSET FLAT:.LC1
	mov	esi, 11
	mov	rdi, rax
	call	_ZN5boost16thread_exceptionC2EiPKc
	mov	rax, QWORD PTR [rbp-8]
	mov	QWORD PTR [rax], OFFSET FLAT:_ZTVN5boost21thread_resource_errorE+16
.LBE17:
	.loc 6 128 0
	leave
.LCFI86:
	.cfi_def_cfa 7, 8
	ret
	.cfi_endproc
.LFE1194:
	.size	_ZN5boost21thread_resource_errorC2Ev, .-_ZN5boost21thread_resource_errorC2Ev
	.weak	_ZN5boost21thread_resource_errorC1Ev
	.set	_ZN5boost21thread_resource_errorC1Ev,_ZN5boost21thread_resource_errorC2Ev
	.section	.text._ZN5boost21thread_resource_errorC2EiPKc,"axG",@progbits,_ZN5boost21thread_resource_errorC5EiPKc,comdat
	.align 2
	.weak	_ZN5boost21thread_resource_errorC2EiPKc
	.type	_ZN5boost21thread_resource_errorC2EiPKc, @function
_ZN5boost21thread_resource_errorC2EiPKc:
.LFB1200:
	.loc 6 134 0
	.cfi_startproc
	push	rbp
.LCFI87:
	.cfi_def_cfa_offset 16
	.cfi_offset 6, -16
	mov	rbp, rsp
.LCFI88:
	.cfi_def_cfa_register 6
	sub	rsp, 32
	mov	QWORD PTR [rbp-8], rdi
	mov	DWORD PTR [rbp-12], esi
	mov	QWORD PTR [rbp-24], rdx
.LBB18:
	.loc 6 135 0
	mov	rax, QWORD PTR [rbp-8]
	mov	rdx, QWORD PTR [rbp-24]
	mov	ecx, DWORD PTR [rbp-12]
	mov	esi, ecx
	mov	rdi, rax
	call	_ZN5boost16thread_exceptionC2EiPKc
	mov	rax, QWORD PTR [rbp-8]
	mov	QWORD PTR [rax], OFFSET FLAT:_ZTVN5boost21thread_resource_errorE+16
.LBE18:
	.loc 6 137 0
	leave
.LCFI89:
	.cfi_def_cfa 7, 8
	ret
	.cfi_endproc
.LFE1200:
	.size	_ZN5boost21thread_resource_errorC2EiPKc, .-_ZN5boost21thread_resource_errorC2EiPKc
	.weak	_ZN5boost21thread_resource_errorC1EiPKc
	.set	_ZN5boost21thread_resource_errorC1EiPKc,_ZN5boost21thread_resource_errorC2EiPKc
	.section	.text._ZN5boost21thread_resource_errorD2Ev,"axG",@progbits,_ZN5boost21thread_resource_errorD5Ev,comdat
	.align 2
	.weak	_ZN5boost21thread_resource_errorD2Ev
	.type	_ZN5boost21thread_resource_errorD2Ev, @function
_ZN5boost21thread_resource_errorD2Ev:
.LFB1206:
	.loc 6 144 0
	.cfi_startproc
	push	rbp
.LCFI90:
	.cfi_def_cfa_offset 16
	.cfi_offset 6, -16
	mov	rbp, rsp
.LCFI91:
	.cfi_def_cfa_register 6
	sub	rsp, 16
	mov	QWORD PTR [rbp-8], rdi
.LBB19:
	.loc 6 145 0
	mov	rax, QWORD PTR [rbp-8]
	mov	QWORD PTR [rax], OFFSET FLAT:_ZTVN5boost21thread_resource_errorE+16
	mov	rax, QWORD PTR [rbp-8]
	mov	rdi, rax
	call	_ZN5boost16thread_exceptionD2Ev
.LBE19:
	mov	eax, 0
	and	eax, 1
	test	eax, eax
	je	.L84
	.loc 6 145 0 is_stmt 0 discriminator 1
	mov	rax, QWORD PTR [rbp-8]
	mov	rdi, rax
	call	_ZdlPv
.L84:
	.loc 6 145 0
	leave
.LCFI92:
	.cfi_def_cfa 7, 8
	ret
	.cfi_endproc
.LFE1206:
	.size	_ZN5boost21thread_resource_errorD2Ev, .-_ZN5boost21thread_resource_errorD2Ev
	.weak	_ZN5boost21thread_resource_errorD1Ev
	.set	_ZN5boost21thread_resource_errorD1Ev,_ZN5boost21thread_resource_errorD2Ev
	.section	.text._ZN5boost21thread_resource_errorD0Ev,"axG",@progbits,_ZN5boost21thread_resource_errorD0Ev,comdat
	.align 2
	.weak	_ZN5boost21thread_resource_errorD0Ev
	.type	_ZN5boost21thread_resource_errorD0Ev, @function
_ZN5boost21thread_resource_errorD0Ev:
.LFB1208:
	.loc 6 144 0 is_stmt 1
	.cfi_startproc
	push	rbp
.LCFI93:
	.cfi_def_cfa_offset 16
	.cfi_offset 6, -16
	mov	rbp, rsp
.LCFI94:
	.cfi_def_cfa_register 6
	sub	rsp, 16
	mov	QWORD PTR [rbp-8], rdi
	.loc 6 145 0
	mov	rax, QWORD PTR [rbp-8]
	mov	rdi, rax
	call	_ZN5boost21thread_resource_errorD1Ev
	mov	rax, QWORD PTR [rbp-8]
	mov	rdi, rax
	call	_ZdlPv
	leave
.LCFI95:
	.cfi_def_cfa 7, 8
	ret
	.cfi_endproc
.LFE1208:
	.size	_ZN5boost21thread_resource_errorD0Ev, .-_ZN5boost21thread_resource_errorD0Ev
	.section	.rodata
	.type	_ZN5boostL10defer_lockE, @object
	.size	_ZN5boostL10defer_lockE, 1
_ZN5boostL10defer_lockE:
	.zero	1
	.type	_ZN5boostL11try_to_lockE, @object
	.size	_ZN5boostL11try_to_lockE, 1
_ZN5boostL11try_to_lockE:
	.zero	1
	.type	_ZN5boostL10adopt_lockE, @object
	.size	_ZN5boostL10adopt_lockE, 1
_ZN5boostL10adopt_lockE:
	.zero	1
	.section	.text._ZN5boost10error_infoINS_15throw_function_EPKcEC2ES3_,"axG",@progbits,_ZN5boost10error_infoINS_15throw_function_EPKcEC5ES3_,comdat
	.align 2
	.weak	_ZN5boost10error_infoINS_15throw_function_EPKcEC2ES3_
	.type	_ZN5boost10error_infoINS_15throw_function_EPKcEC2ES3_, @function
_ZN5boost10error_infoINS_15throw_function_EPKcEC2ES3_:
.LFB1278:
	.file 7 "/usr/local/include/boost/exception/exception.hpp"
	.loc 7 101 0
	.cfi_startproc
	push	rbp
.LCFI96:
	.cfi_def_cfa_offset 16
	.cfi_offset 6, -16
	mov	rbp, rsp
.LCFI97:
	.cfi_def_cfa_register 6
	mov	QWORD PTR [rbp-8], rdi
	mov	QWORD PTR [rbp-16], rsi
.LBB20:
	.loc 7 102 0
	mov	rax, QWORD PTR [rbp-8]
	mov	rdx, QWORD PTR [rbp-16]
	mov	QWORD PTR [rax], rdx
.LBE20:
	.loc 7 104 0
	pop	rbp
.LCFI98:
	.cfi_def_cfa 7, 8
	ret
	.cfi_endproc
.LFE1278:
	.size	_ZN5boost10error_infoINS_15throw_function_EPKcEC2ES3_, .-_ZN5boost10error_infoINS_15throw_function_EPKcEC2ES3_
	.weak	_ZN5boost10error_infoINS_15throw_function_EPKcEC1ES3_
	.set	_ZN5boost10error_infoINS_15throw_function_EPKcEC1ES3_,_ZN5boost10error_infoINS_15throw_function_EPKcEC2ES3_
	.section	.text._ZN5boost10error_infoINS_11throw_file_EPKcEC2ES3_,"axG",@progbits,_ZN5boost10error_infoINS_11throw_file_EPKcEC5ES3_,comdat
	.align 2
	.weak	_ZN5boost10error_infoINS_11throw_file_EPKcEC2ES3_
	.type	_ZN5boost10error_infoINS_11throw_file_EPKcEC2ES3_, @function
_ZN5boost10error_infoINS_11throw_file_EPKcEC2ES3_:
.LFB1281:
	.loc 7 115 0
	.cfi_startproc
	push	rbp
.LCFI99:
	.cfi_def_cfa_offset 16
	.cfi_offset 6, -16
	mov	rbp, rsp
.LCFI100:
	.cfi_def_cfa_register 6
	mov	QWORD PTR [rbp-8], rdi
	mov	QWORD PTR [rbp-16], rsi
.LBB21:
	.loc 7 116 0
	mov	rax, QWORD PTR [rbp-8]
	mov	rdx, QWORD PTR [rbp-16]
	mov	QWORD PTR [rax], rdx
.LBE21:
	.loc 7 118 0
	pop	rbp
.LCFI101:
	.cfi_def_cfa 7, 8
	ret
	.cfi_endproc
.LFE1281:
	.size	_ZN5boost10error_infoINS_11throw_file_EPKcEC2ES3_, .-_ZN5boost10error_infoINS_11throw_file_EPKcEC2ES3_
	.weak	_ZN5boost10error_infoINS_11throw_file_EPKcEC1ES3_
	.set	_ZN5boost10error_infoINS_11throw_file_EPKcEC1ES3_,_ZN5boost10error_infoINS_11throw_file_EPKcEC2ES3_
	.section	.text._ZN5boost10error_infoINS_11throw_line_EiEC2Ei,"axG",@progbits,_ZN5boost10error_infoINS_11throw_line_EiEC5Ei,comdat
	.align 2
	.weak	_ZN5boost10error_infoINS_11throw_line_EiEC2Ei
	.type	_ZN5boost10error_infoINS_11throw_line_EiEC2Ei, @function
_ZN5boost10error_infoINS_11throw_line_EiEC2Ei:
.LFB1284:
	.loc 7 129 0
	.cfi_startproc
	push	rbp
.LCFI102:
	.cfi_def_cfa_offset 16
	.cfi_offset 6, -16
	mov	rbp, rsp
.LCFI103:
	.cfi_def_cfa_register 6
	mov	QWORD PTR [rbp-8], rdi
	mov	DWORD PTR [rbp-12], esi
.LBB22:
	.loc 7 130 0
	mov	rax, QWORD PTR [rbp-8]
	mov	edx, DWORD PTR [rbp-12]
	mov	DWORD PTR [rax], edx
.LBE22:
	.loc 7 132 0
	pop	rbp
.LCFI104:
	.cfi_def_cfa 7, 8
	ret
	.cfi_endproc
.LFE1284:
	.size	_ZN5boost10error_infoINS_11throw_line_EiEC2Ei, .-_ZN5boost10error_infoINS_11throw_line_EiEC2Ei
	.weak	_ZN5boost10error_infoINS_11throw_line_EiEC1Ei
	.set	_ZN5boost10error_infoINS_11throw_line_EiEC1Ei,_ZN5boost10error_infoINS_11throw_line_EiEC2Ei
	.section	.text._ZN5boost9exceptionC2Ev,"axG",@progbits,_ZN5boost9exceptionC5Ev,comdat
	.align 2
	.weak	_ZN5boost9exceptionC2Ev
	.type	_ZN5boost9exceptionC2Ev, @function
_ZN5boost9exceptionC2Ev:
.LFB1290:
	.loc 7 212 0
	.cfi_startproc
	push	rbp
.LCFI105:
	.cfi_def_cfa_offset 16
	.cfi_offset 6, -16
	mov	rbp, rsp
.LCFI106:
	.cfi_def_cfa_register 6
	sub	rsp, 16
	mov	QWORD PTR [rbp-8], rdi
.LBB23:
	.loc 7 215 0
	mov	rax, QWORD PTR [rbp-8]
	mov	QWORD PTR [rax], OFFSET FLAT:_ZTVN5boost9exceptionE+16
	mov	rax, QWORD PTR [rbp-8]
	add	rax, 8
	mov	rdi, rax
	call	_ZN5boost16exception_detail12refcount_ptrINS0_20error_info_containerEEC1Ev
	mov	rax, QWORD PTR [rbp-8]
	mov	QWORD PTR [rax+16], 0
	mov	rax, QWORD PTR [rbp-8]
	mov	QWORD PTR [rax+24], 0
	mov	rax, QWORD PTR [rbp-8]
	mov	DWORD PTR [rax+32], -1
.LBE23:
	.loc 7 217 0
	leave
.LCFI107:
	.cfi_def_cfa 7, 8
	ret
	.cfi_endproc
.LFE1290:
	.size	_ZN5boost9exceptionC2Ev, .-_ZN5boost9exceptionC2Ev
	.weak	_ZN5boost9exceptionC1Ev
	.set	_ZN5boost9exceptionC1Ev,_ZN5boost9exceptionC2Ev
	.section	.text._ZN5boost9exceptionD2Ev,"axG",@progbits,_ZN5boost9exceptionD5Ev,comdat
	.align 2
	.weak	_ZN5boost9exceptionD2Ev
	.type	_ZN5boost9exceptionD2Ev, @function
_ZN5boost9exceptionD2Ev:
.LFB1293:
	.loc 7 275 0
	.cfi_startproc
	.cfi_personality 0x3,__gxx_personality_v0
	.cfi_lsda 0x3,.LLSDA1293
	push	rbp
.LCFI108:
	.cfi_def_cfa_offset 16
	.cfi_offset 6, -16
	mov	rbp, rsp
.LCFI109:
	.cfi_def_cfa_register 6
	sub	rsp, 16
	mov	QWORD PTR [rbp-8], rdi
.LBB24:
	.loc 7 276 0
	mov	rax, QWORD PTR [rbp-8]
	mov	QWORD PTR [rax], OFFSET FLAT:_ZTVN5boost9exceptionE+16
	mov	rax, QWORD PTR [rbp-8]
	add	rax, 8
	mov	rdi, rax
.LEHB20:
	call	_ZN5boost16exception_detail12refcount_ptrINS0_20error_info_containerEED1Ev
.LEHE20:
.LBE24:
	.loc 7 278 0
	mov	eax, 0
	and	eax, 1
	test	eax, eax
	je	.L93
	.loc 7 278 0 is_stmt 0 discriminator 1
	mov	rax, QWORD PTR [rbp-8]
	mov	rdi, rax
	call	_ZdlPv
	jmp	.L93
.L98:
	cmp	rdx, -1
	je	.L97
	mov	rdi, rax
.LEHB21:
	call	_Unwind_Resume
.L97:
	.loc 7 275 0 is_stmt 1
	mov	rdi, rax
	call	__cxa_call_unexpected
.LEHE21:
.L93:
	.loc 7 278 0
	leave
.LCFI110:
	.cfi_def_cfa 7, 8
	ret
	.cfi_endproc
.LFE1293:
	.section	.gcc_except_table
	.align 4
.LLSDA1293:
	.byte	0xff
	.byte	0x3
	.uleb128 .LLSDATT1293-.LLSDATTD1293
.LLSDATTD1293:
	.byte	0x1
	.uleb128 .LLSDACSE1293-.LLSDACSB1293
.LLSDACSB1293:
	.uleb128 .LEHB20-.LFB1293
	.uleb128 .LEHE20-.LEHB20
	.uleb128 .L98-.LFB1293
	.uleb128 0x1
	.uleb128 .LEHB21-.LFB1293
	.uleb128 .LEHE21-.LEHB21
	.uleb128 0
	.uleb128 0
.LLSDACSE1293:
	.byte	0x7f
	.byte	0
	.align 4
.LLSDATT1293:
	.byte	0
	.section	.text._ZN5boost9exceptionD2Ev,"axG",@progbits,_ZN5boost9exceptionD5Ev,comdat
	.size	_ZN5boost9exceptionD2Ev, .-_ZN5boost9exceptionD2Ev
	.weak	_ZN5boost9exceptionD1Ev
	.set	_ZN5boost9exceptionD1Ev,_ZN5boost9exceptionD2Ev
	.section	.text._ZN5boost9exceptionD0Ev,"axG",@progbits,_ZN5boost9exceptionD0Ev,comdat
	.align 2
	.weak	_ZN5boost9exceptionD0Ev
	.type	_ZN5boost9exceptionD0Ev, @function
_ZN5boost9exceptionD0Ev:
.LFB1295:
	.loc 7 275 0
	.cfi_startproc
	push	rbp
.LCFI111:
	.cfi_def_cfa_offset 16
	.cfi_offset 6, -16
	mov	rbp, rsp
.LCFI112:
	.cfi_def_cfa_register 6
	sub	rsp, 16
	mov	QWORD PTR [rbp-8], rdi
	.loc 7 278 0
	mov	rax, QWORD PTR [rbp-8]
	mov	rdi, rax
	call	_ZN5boost9exceptionD1Ev
	mov	rax, QWORD PTR [rbp-8]
	mov	rdi, rax
	call	_ZdlPv
	leave
.LCFI113:
	.cfi_def_cfa 7, 8
	ret
	.cfi_endproc
.LFE1295:
	.size	_ZN5boost9exceptionD0Ev, .-_ZN5boost9exceptionD0Ev
	.section	.text._ZN5boost16exception_detail10clone_baseD2Ev,"axG",@progbits,_ZN5boost16exception_detail10clone_baseD5Ev,comdat
	.align 2
	.weak	_ZN5boost16exception_detail10clone_baseD2Ev
	.type	_ZN5boost16exception_detail10clone_baseD2Ev, @function
_ZN5boost16exception_detail10clone_baseD2Ev:
.LFB1303:
	.loc 7 400 0
	.cfi_startproc
	push	rbp
.LCFI114:
	.cfi_def_cfa_offset 16
	.cfi_offset 6, -16
	mov	rbp, rsp
.LCFI115:
	.cfi_def_cfa_register 6
	sub	rsp, 16
	mov	QWORD PTR [rbp-8], rdi
.LBB25:
	.loc 7 401 0
	mov	rax, QWORD PTR [rbp-8]
	mov	QWORD PTR [rax], OFFSET FLAT:_ZTVN5boost16exception_detail10clone_baseE+16
.LBE25:
	.loc 7 402 0
	mov	eax, 0
	and	eax, 1
	test	eax, eax
	je	.L101
	.loc 7 402 0 is_stmt 0 discriminator 1
	mov	rax, QWORD PTR [rbp-8]
	mov	rdi, rax
	call	_ZdlPv
.L101:
	.loc 7 402 0
	leave
.LCFI116:
	.cfi_def_cfa 7, 8
	ret
	.cfi_endproc
.LFE1303:
	.size	_ZN5boost16exception_detail10clone_baseD2Ev, .-_ZN5boost16exception_detail10clone_baseD2Ev
	.weak	_ZN5boost16exception_detail10clone_baseD1Ev
	.set	_ZN5boost16exception_detail10clone_baseD1Ev,_ZN5boost16exception_detail10clone_baseD2Ev
	.section	.text._ZN5boost16exception_detail10clone_baseD0Ev,"axG",@progbits,_ZN5boost16exception_detail10clone_baseD0Ev,comdat
	.align 2
	.weak	_ZN5boost16exception_detail10clone_baseD0Ev
	.type	_ZN5boost16exception_detail10clone_baseD0Ev, @function
_ZN5boost16exception_detail10clone_baseD0Ev:
.LFB1305:
	.loc 7 400 0 is_stmt 1
	.cfi_startproc
	push	rbp
.LCFI117:
	.cfi_def_cfa_offset 16
	.cfi_offset 6, -16
	mov	rbp, rsp
.LCFI118:
	.cfi_def_cfa_register 6
	sub	rsp, 16
	mov	QWORD PTR [rbp-8], rdi
	.loc 7 402 0
	mov	rax, QWORD PTR [rbp-8]
	mov	rdi, rax
	call	_ZN5boost16exception_detail10clone_baseD1Ev
	mov	rax, QWORD PTR [rbp-8]
	mov	rdi, rax
	call	_ZdlPv
	leave
.LCFI119:
	.cfi_def_cfa 7, 8
	ret
	.cfi_endproc
.LFE1305:
	.size	_ZN5boost16exception_detail10clone_baseD0Ev, .-_ZN5boost16exception_detail10clone_baseD0Ev
	.section	.text._ZN5boost16exception_detail20copy_boost_exceptionEPNS_9exceptionEPKS1_,"axG",@progbits,_ZN5boost16exception_detail20copy_boost_exceptionEPNS_9exceptionEPKS1_,comdat
	.weak	_ZN5boost16exception_detail20copy_boost_exceptionEPNS_9exceptionEPKS1_
	.type	_ZN5boost16exception_detail20copy_boost_exceptionEPNS_9exceptionEPKS1_, @function
_ZN5boost16exception_detail20copy_boost_exceptionEPNS_9exceptionEPKS1_:
.LFB1306:
	.loc 7 413 0
	.cfi_startproc
	.cfi_personality 0x3,__gxx_personality_v0
	.cfi_lsda 0x3,.LLSDA1306
	push	rbp
.LCFI120:
	.cfi_def_cfa_offset 16
	.cfi_offset 6, -16
	mov	rbp, rsp
.LCFI121:
	.cfi_def_cfa_register 6
	push	rbx
	sub	rsp, 56
	.cfi_offset 3, -24
	mov	QWORD PTR [rbp-56], rdi
	mov	QWORD PTR [rbp-64], rsi
.LBB26:
	.loc 7 414 0
	lea	rax, [rbp-48]
	mov	rdi, rax
	call	_ZN5boost16exception_detail12refcount_ptrINS0_20error_info_containerEEC1Ev
.LBB27:
	.loc 7 415 0
	mov	rax, QWORD PTR [rbp-64]
	add	rax, 8
	mov	rdi, rax
	call	_ZNK5boost16exception_detail12refcount_ptrINS0_20error_info_containerEE3getEv
	mov	QWORD PTR [rbp-24], rax
	cmp	QWORD PTR [rbp-24], 0
	je	.L107
	.loc 7 416 0
	mov	rax, QWORD PTR [rbp-24]
	mov	rax, QWORD PTR [rax]
	add	rax, 40
	mov	rax, QWORD PTR [rax]
	lea	rdx, [rbp-32]
	mov	rcx, QWORD PTR [rbp-24]
	mov	rsi, rcx
	mov	rdi, rdx
.LEHB22:
	call	rax
.LEHE22:
	.loc 7 416 0 is_stmt 0 discriminator 1
	lea	rdx, [rbp-32]
	lea	rax, [rbp-48]
	mov	rsi, rdx
	mov	rdi, rax
.LEHB23:
	call	_ZN5boost16exception_detail12refcount_ptrINS0_20error_info_containerEEaSERKS3_
.LEHE23:
	lea	rax, [rbp-32]
	mov	rdi, rax
.LEHB24:
	call	_ZN5boost16exception_detail12refcount_ptrINS0_20error_info_containerEED1Ev
.L107:
.LBE27:
	.loc 7 417 0 is_stmt 1
	mov	rax, QWORD PTR [rbp-64]
	mov	rdx, QWORD PTR [rax+24]
	mov	rax, QWORD PTR [rbp-56]
	mov	QWORD PTR [rax+24], rdx
	.loc 7 418 0
	mov	rax, QWORD PTR [rbp-64]
	mov	edx, DWORD PTR [rax+32]
	mov	rax, QWORD PTR [rbp-56]
	mov	DWORD PTR [rax+32], edx
	.loc 7 419 0
	mov	rax, QWORD PTR [rbp-64]
	mov	rdx, QWORD PTR [rax+16]
	mov	rax, QWORD PTR [rbp-56]
	mov	QWORD PTR [rax+16], rdx
	.loc 7 420 0
	mov	rax, QWORD PTR [rbp-56]
	lea	rdx, [rax+8]
	lea	rax, [rbp-48]
	mov	rsi, rax
	mov	rdi, rdx
	call	_ZN5boost16exception_detail12refcount_ptrINS0_20error_info_containerEEaSERKS3_
.LEHE24:
	.loc 7 420 0 is_stmt 0 discriminator 1
	lea	rax, [rbp-48]
	mov	rdi, rax
.LEHB25:
	call	_ZN5boost16exception_detail12refcount_ptrINS0_20error_info_containerEED1Ev
.LEHE25:
.LBE26:
	.loc 7 421 0 is_stmt 1
	jmp	.L114
.L112:
	mov	rbx, rax
.LBB29:
.LBB28:
	.loc 7 416 0
	lea	rax, [rbp-32]
	mov	rdi, rax
	call	_ZN5boost16exception_detail12refcount_ptrINS0_20error_info_containerEED1Ev
	jmp	.L109
.L111:
	mov	rbx, rax
.L109:
.LBE28:
	.loc 7 420 0
	lea	rax, [rbp-48]
	mov	rdi, rax
	call	_ZN5boost16exception_detail12refcount_ptrINS0_20error_info_containerEED1Ev
	mov	rax, rbx
	jmp	.L110
.L113:
.L110:
	mov	rdi, rax
.LEHB26:
	call	_Unwind_Resume
.LEHE26:
.L114:
.LBE29:
	.loc 7 421 0
	add	rsp, 56
	pop	rbx
	pop	rbp
.LCFI122:
	.cfi_def_cfa 7, 8
	ret
	.cfi_endproc
.LFE1306:
	.section	.gcc_except_table
.LLSDA1306:
	.byte	0xff
	.byte	0xff
	.byte	0x1
	.uleb128 .LLSDACSE1306-.LLSDACSB1306
.LLSDACSB1306:
	.uleb128 .LEHB22-.LFB1306
	.uleb128 .LEHE22-.LEHB22
	.uleb128 .L111-.LFB1306
	.uleb128 0
	.uleb128 .LEHB23-.LFB1306
	.uleb128 .LEHE23-.LEHB23
	.uleb128 .L112-.LFB1306
	.uleb128 0
	.uleb128 .LEHB24-.LFB1306
	.uleb128 .LEHE24-.LEHB24
	.uleb128 .L111-.LFB1306
	.uleb128 0
	.uleb128 .LEHB25-.LFB1306
	.uleb128 .LEHE25-.LEHB25
	.uleb128 .L113-.LFB1306
	.uleb128 0
	.uleb128 .LEHB26-.LFB1306
	.uleb128 .LEHE26-.LEHB26
	.uleb128 0
	.uleb128 0
.LLSDACSE1306:
	.section	.text._ZN5boost16exception_detail20copy_boost_exceptionEPNS_9exceptionEPKS1_,"axG",@progbits,_ZN5boost16exception_detail20copy_boost_exceptionEPNS_9exceptionEPKS1_,comdat
	.size	_ZN5boost16exception_detail20copy_boost_exceptionEPNS_9exceptionEPKS1_, .-_ZN5boost16exception_detail20copy_boost_exceptionEPNS_9exceptionEPKS1_
	.section	.text._ZN5boost36throw_exception_assert_compatibilityERKSt9exception,"axG",@progbits,_ZN5boost36throw_exception_assert_compatibilityERKSt9exception,comdat
	.weak	_ZN5boost36throw_exception_assert_compatibilityERKSt9exception
	.type	_ZN5boost36throw_exception_assert_compatibilityERKSt9exception, @function
_ZN5boost36throw_exception_assert_compatibilityERKSt9exception:
.LFB1314:
	.file 8 "/usr/local/include/boost/throw_exception.hpp"
	.loc 8 58 0
	.cfi_startproc
	push	rbp
.LCFI123:
	.cfi_def_cfa_offset 16
	.cfi_offset 6, -16
	mov	rbp, rsp
.LCFI124:
	.cfi_def_cfa_register 6
	mov	QWORD PTR [rbp-8], rdi
	.loc 8 58 0
	pop	rbp
.LCFI125:
	.cfi_def_cfa 7, 8
	ret
	.cfi_endproc
.LFE1314:
	.size	_ZN5boost36throw_exception_assert_compatibilityERKSt9exception, .-_ZN5boost36throw_exception_assert_compatibilityERKSt9exception
	.section	.text._ZN5boost6detail23atomic_exchange_and_addEPii,"axG",@progbits,_ZN5boost6detail23atomic_exchange_and_addEPii,comdat
	.weak	_ZN5boost6detail23atomic_exchange_and_addEPii
	.type	_ZN5boost6detail23atomic_exchange_and_addEPii, @function
_ZN5boost6detail23atomic_exchange_and_addEPii:
.LFB1404:
	.file 9 "/usr/local/include/boost/smart_ptr/detail/sp_counted_base_gcc_x86.hpp"
	.loc 9 36 0
	.cfi_startproc
	push	rbp
.LCFI126:
	.cfi_def_cfa_offset 16
	.cfi_offset 6, -16
	mov	rbp, rsp
.LCFI127:
	.cfi_def_cfa_register 6
	push	rbx
	.cfi_offset 3, -24
	mov	QWORD PTR [rbp-32], rdi
	mov	DWORD PTR [rbp-36], esi
.LBB30:
	.loc 9 50 0
	mov	rax, QWORD PTR [rbp-32]
	mov	rdx, QWORD PTR [rbp-32]
	mov	ecx, DWORD PTR [rbp-36]
	mov	ebx, ecx
#APP
# 50 "/usr/local/include/boost/smart_ptr/detail/sp_counted_base_gcc_x86.hpp" 1
	lock
	xadd ebx, DWORD PTR [rax]
# 0 "" 2
#NO_APP
	mov	DWORD PTR [rbp-12], ebx
	.loc 9 52 0
	mov	eax, DWORD PTR [rbp-12]
.LBE30:
	.loc 9 53 0
	pop	rbx
	pop	rbp
.LCFI128:
	.cfi_def_cfa 7, 8
	ret
	.cfi_endproc
.LFE1404:
	.size	_ZN5boost6detail23atomic_exchange_and_addEPii, .-_ZN5boost6detail23atomic_exchange_and_addEPii
	.section	.text._ZN5boost6detail16atomic_incrementEPi,"axG",@progbits,_ZN5boost6detail16atomic_incrementEPi,comdat
	.weak	_ZN5boost6detail16atomic_incrementEPi
	.type	_ZN5boost6detail16atomic_incrementEPi, @function
_ZN5boost6detail16atomic_incrementEPi:
.LFB1405:
	.loc 9 56 0
	.cfi_startproc
	push	rbp
.LCFI129:
	.cfi_def_cfa_offset 16
	.cfi_offset 6, -16
	mov	rbp, rsp
.LCFI130:
	.cfi_def_cfa_register 6
	mov	QWORD PTR [rbp-8], rdi
	.loc 9 66 0
	mov	rax, QWORD PTR [rbp-8]
	mov	rdx, QWORD PTR [rbp-8]
#APP
# 66 "/usr/local/include/boost/smart_ptr/detail/sp_counted_base_gcc_x86.hpp" 1
	lock
	incl DWORD PTR [rax]
# 0 "" 2
	.loc 9 67 0
#NO_APP
	pop	rbp
.LCFI131:
	.cfi_def_cfa 7, 8
	ret
	.cfi_endproc
.LFE1405:
	.size	_ZN5boost6detail16atomic_incrementEPi, .-_ZN5boost6detail16atomic_incrementEPi
	.section	.text._ZN5boost6detail15sp_counted_baseC2Ev,"axG",@progbits,_ZN5boost6detail15sp_counted_baseC5Ev,comdat
	.align 2
	.weak	_ZN5boost6detail15sp_counted_baseC2Ev
	.type	_ZN5boost6detail15sp_counted_baseC2Ev, @function
_ZN5boost6detail15sp_counted_baseC2Ev:
.LFB1408:
	.loc 9 109 0
	.cfi_startproc
	push	rbp
.LCFI132:
	.cfi_def_cfa_offset 16
	.cfi_offset 6, -16
	mov	rbp, rsp
.LCFI133:
	.cfi_def_cfa_register 6
	mov	QWORD PTR [rbp-8], rdi
.LBB31:
	.loc 9 109 0
	mov	rax, QWORD PTR [rbp-8]
	mov	QWORD PTR [rax], OFFSET FLAT:_ZTVN5boost6detail15sp_counted_baseE+16
	mov	rax, QWORD PTR [rbp-8]
	mov	DWORD PTR [rax+8], 1
	mov	rax, QWORD PTR [rbp-8]
	mov	DWORD PTR [rax+12], 1
.LBE31:
	.loc 9 111 0
	pop	rbp
.LCFI134:
	.cfi_def_cfa 7, 8
	ret
	.cfi_endproc
.LFE1408:
	.size	_ZN5boost6detail15sp_counted_baseC2Ev, .-_ZN5boost6detail15sp_counted_baseC2Ev
	.weak	_ZN5boost6detail15sp_counted_baseC1Ev
	.set	_ZN5boost6detail15sp_counted_baseC1Ev,_ZN5boost6detail15sp_counted_baseC2Ev
	.section	.text._ZN5boost6detail15sp_counted_baseD2Ev,"axG",@progbits,_ZN5boost6detail15sp_counted_baseD5Ev,comdat
	.align 2
	.weak	_ZN5boost6detail15sp_counted_baseD2Ev
	.type	_ZN5boost6detail15sp_counted_baseD2Ev, @function
_ZN5boost6detail15sp_counted_baseD2Ev:
.LFB1411:
	.loc 9 113 0
	.cfi_startproc
	push	rbp
.LCFI135:
	.cfi_def_cfa_offset 16
	.cfi_offset 6, -16
	mov	rbp, rsp
.LCFI136:
	.cfi_def_cfa_register 6
	sub	rsp, 16
	mov	QWORD PTR [rbp-8], rdi
.LBB32:
	.loc 9 114 0
	mov	rax, QWORD PTR [rbp-8]
	mov	QWORD PTR [rax], OFFSET FLAT:_ZTVN5boost6detail15sp_counted_baseE+16
.LBE32:
	.loc 9 115 0
	mov	eax, 0
	and	eax, 1
	test	eax, eax
	je	.L120
	.loc 9 115 0 is_stmt 0 discriminator 1
	mov	rax, QWORD PTR [rbp-8]
	mov	rdi, rax
	call	_ZdlPv
.L120:
	.loc 9 115 0
	leave
.LCFI137:
	.cfi_def_cfa 7, 8
	ret
	.cfi_endproc
.LFE1411:
	.size	_ZN5boost6detail15sp_counted_baseD2Ev, .-_ZN5boost6detail15sp_counted_baseD2Ev
	.weak	_ZN5boost6detail15sp_counted_baseD1Ev
	.set	_ZN5boost6detail15sp_counted_baseD1Ev,_ZN5boost6detail15sp_counted_baseD2Ev
	.section	.text._ZN5boost6detail15sp_counted_baseD0Ev,"axG",@progbits,_ZN5boost6detail15sp_counted_baseD0Ev,comdat
	.align 2
	.weak	_ZN5boost6detail15sp_counted_baseD0Ev
	.type	_ZN5boost6detail15sp_counted_baseD0Ev, @function
_ZN5boost6detail15sp_counted_baseD0Ev:
.LFB1413:
	.loc 9 113 0 is_stmt 1
	.cfi_startproc
	push	rbp
.LCFI138:
	.cfi_def_cfa_offset 16
	.cfi_offset 6, -16
	mov	rbp, rsp
.LCFI139:
	.cfi_def_cfa_register 6
	sub	rsp, 16
	mov	QWORD PTR [rbp-8], rdi
	.loc 9 115 0
	mov	rax, QWORD PTR [rbp-8]
	mov	rdi, rax
	call	_ZN5boost6detail15sp_counted_baseD1Ev
	mov	rax, QWORD PTR [rbp-8]
	mov	rdi, rax
	call	_ZdlPv
	leave
.LCFI140:
	.cfi_def_cfa 7, 8
	ret
	.cfi_endproc
.LFE1413:
	.size	_ZN5boost6detail15sp_counted_baseD0Ev, .-_ZN5boost6detail15sp_counted_baseD0Ev
	.section	.text._ZN5boost6detail15sp_counted_base7destroyEv,"axG",@progbits,_ZN5boost6detail15sp_counted_base7destroyEv,comdat
	.align 2
	.weak	_ZN5boost6detail15sp_counted_base7destroyEv
	.type	_ZN5boost6detail15sp_counted_base7destroyEv, @function
_ZN5boost6detail15sp_counted_base7destroyEv:
.LFB1414:
	.loc 9 124 0
	.cfi_startproc
	push	rbp
.LCFI141:
	.cfi_def_cfa_offset 16
	.cfi_offset 6, -16
	mov	rbp, rsp
.LCFI142:
	.cfi_def_cfa_register 6
	sub	rsp, 16
	mov	QWORD PTR [rbp-8], rdi
	.loc 9 126 0
	cmp	QWORD PTR [rbp-8], 0
	je	.L125
	.loc 9 126 0 is_stmt 0 discriminator 1
	mov	rax, QWORD PTR [rbp-8]
	mov	rax, QWORD PTR [rax]
	add	rax, 8
	mov	rax, QWORD PTR [rax]
	mov	rdx, QWORD PTR [rbp-8]
	mov	rdi, rdx
	call	rax
.L125:
	.loc 9 127 0 is_stmt 1
	leave
.LCFI143:
	.cfi_def_cfa 7, 8
	ret
	.cfi_endproc
.LFE1414:
	.size	_ZN5boost6detail15sp_counted_base7destroyEv, .-_ZN5boost6detail15sp_counted_base7destroyEv
	.section	.text._ZN5boost6detail15sp_counted_base12add_ref_copyEv,"axG",@progbits,_ZN5boost6detail15sp_counted_base12add_ref_copyEv,comdat
	.align 2
	.weak	_ZN5boost6detail15sp_counted_base12add_ref_copyEv
	.type	_ZN5boost6detail15sp_counted_base12add_ref_copyEv, @function
_ZN5boost6detail15sp_counted_base12add_ref_copyEv:
.LFB1415:
	.loc 9 132 0
	.cfi_startproc
	push	rbp
.LCFI144:
	.cfi_def_cfa_offset 16
	.cfi_offset 6, -16
	mov	rbp, rsp
.LCFI145:
	.cfi_def_cfa_register 6
	sub	rsp, 16
	mov	QWORD PTR [rbp-8], rdi
	.loc 9 134 0
	mov	rax, QWORD PTR [rbp-8]
	add	rax, 8
	mov	rdi, rax
	call	_ZN5boost6detail16atomic_incrementEPi
	.loc 9 135 0
	leave
.LCFI146:
	.cfi_def_cfa 7, 8
	ret
	.cfi_endproc
.LFE1415:
	.size	_ZN5boost6detail15sp_counted_base12add_ref_copyEv, .-_ZN5boost6detail15sp_counted_base12add_ref_copyEv
	.section	.text._ZN5boost6detail15sp_counted_base7releaseEv,"axG",@progbits,_ZN5boost6detail15sp_counted_base7releaseEv,comdat
	.align 2
	.weak	_ZN5boost6detail15sp_counted_base7releaseEv
	.type	_ZN5boost6detail15sp_counted_base7releaseEv, @function
_ZN5boost6detail15sp_counted_base7releaseEv:
.LFB1417:
	.loc 9 142 0
	.cfi_startproc
	push	rbp
.LCFI147:
	.cfi_def_cfa_offset 16
	.cfi_offset 6, -16
	mov	rbp, rsp
.LCFI148:
	.cfi_def_cfa_register 6
	sub	rsp, 16
	mov	QWORD PTR [rbp-8], rdi
	.loc 9 144 0
	mov	rax, QWORD PTR [rbp-8]
	add	rax, 8
	mov	esi, -1
	mov	rdi, rax
	call	_ZN5boost6detail23atomic_exchange_and_addEPii
	cmp	eax, 1
	sete	al
	test	al, al
	je	.L128
	.loc 9 146 0
	mov	rax, QWORD PTR [rbp-8]
	mov	rax, QWORD PTR [rax]
	add	rax, 16
	mov	rax, QWORD PTR [rax]
	mov	rdx, QWORD PTR [rbp-8]
	mov	rdi, rdx
	call	rax
	.loc 9 147 0
	mov	rax, QWORD PTR [rbp-8]
	mov	rdi, rax
	call	_ZN5boost6detail15sp_counted_base12weak_releaseEv
.L128:
	.loc 9 149 0
	leave
.LCFI149:
	.cfi_def_cfa 7, 8
	ret
	.cfi_endproc
.LFE1417:
	.size	_ZN5boost6detail15sp_counted_base7releaseEv, .-_ZN5boost6detail15sp_counted_base7releaseEv
	.section	.text._ZN5boost6detail15sp_counted_base12weak_add_refEv,"axG",@progbits,_ZN5boost6detail15sp_counted_base12weak_add_refEv,comdat
	.align 2
	.weak	_ZN5boost6detail15sp_counted_base12weak_add_refEv
	.type	_ZN5boost6detail15sp_counted_base12weak_add_refEv, @function
_ZN5boost6detail15sp_counted_base12weak_add_refEv:
.LFB1418:
	.loc 9 151 0
	.cfi_startproc
	push	rbp
.LCFI150:
	.cfi_def_cfa_offset 16
	.cfi_offset 6, -16
	mov	rbp, rsp
.LCFI151:
	.cfi_def_cfa_register 6
	sub	rsp, 16
	mov	QWORD PTR [rbp-8], rdi
	.loc 9 153 0
	mov	rax, QWORD PTR [rbp-8]
	add	rax, 12
	mov	rdi, rax
	call	_ZN5boost6detail16atomic_incrementEPi
	.loc 9 154 0
	leave
.LCFI152:
	.cfi_def_cfa 7, 8
	ret
	.cfi_endproc
.LFE1418:
	.size	_ZN5boost6detail15sp_counted_base12weak_add_refEv, .-_ZN5boost6detail15sp_counted_base12weak_add_refEv
	.section	.text._ZN5boost6detail15sp_counted_base12weak_releaseEv,"axG",@progbits,_ZN5boost6detail15sp_counted_base12weak_releaseEv,comdat
	.align 2
	.weak	_ZN5boost6detail15sp_counted_base12weak_releaseEv
	.type	_ZN5boost6detail15sp_counted_base12weak_releaseEv, @function
_ZN5boost6detail15sp_counted_base12weak_releaseEv:
.LFB1419:
	.loc 9 156 0
	.cfi_startproc
	push	rbp
.LCFI153:
	.cfi_def_cfa_offset 16
	.cfi_offset 6, -16
	mov	rbp, rsp
.LCFI154:
	.cfi_def_cfa_register 6
	sub	rsp, 16
	mov	QWORD PTR [rbp-8], rdi
	.loc 9 158 0
	mov	rax, QWORD PTR [rbp-8]
	add	rax, 12
	mov	esi, -1
	mov	rdi, rax
	call	_ZN5boost6detail23atomic_exchange_and_addEPii
	cmp	eax, 1
	sete	al
	test	al, al
	je	.L131
	.loc 9 160 0
	mov	rax, QWORD PTR [rbp-8]
	mov	rax, QWORD PTR [rax]
	add	rax, 24
	mov	rax, QWORD PTR [rax]
	mov	rdx, QWORD PTR [rbp-8]
	mov	rdi, rdx
	call	rax
.L131:
	.loc 9 162 0
	leave
.LCFI155:
	.cfi_def_cfa 7, 8
	ret
	.cfi_endproc
.LFE1419:
	.size	_ZN5boost6detail15sp_counted_base12weak_releaseEv, .-_ZN5boost6detail15sp_counted_base12weak_releaseEv
	.section	.text._ZNK5boost6detail15sp_counted_base9use_countEv,"axG",@progbits,_ZNK5boost6detail15sp_counted_base9use_countEv,comdat
	.align 2
	.weak	_ZNK5boost6detail15sp_counted_base9use_countEv
	.type	_ZNK5boost6detail15sp_counted_base9use_countEv, @function
_ZNK5boost6detail15sp_counted_base9use_countEv:
.LFB1420:
	.loc 9 164 0
	.cfi_startproc
	push	rbp
.LCFI156:
	.cfi_def_cfa_offset 16
	.cfi_offset 6, -16
	mov	rbp, rsp
.LCFI157:
	.cfi_def_cfa_register 6
	mov	QWORD PTR [rbp-8], rdi
	.loc 9 166 0
	mov	rax, QWORD PTR [rbp-8]
	add	rax, 8
	mov	eax, DWORD PTR [rax]
	cdqe
	.loc 9 167 0
	pop	rbp
.LCFI158:
	.cfi_def_cfa 7, 8
	ret
	.cfi_endproc
.LFE1420:
	.size	_ZNK5boost6detail15sp_counted_base9use_countEv, .-_ZNK5boost6detail15sp_counted_base9use_countEv
	.section	.text._ZN5boost6detail12shared_countC2Ev,"axG",@progbits,_ZN5boost6detail12shared_countC5Ev,comdat
	.align 2
	.weak	_ZN5boost6detail12shared_countC2Ev
	.type	_ZN5boost6detail12shared_countC2Ev, @function
_ZN5boost6detail12shared_countC2Ev:
.LFB1437:
	.file 10 "/usr/local/include/boost/smart_ptr/detail/shared_count.hpp"
	.loc 10 114 0
	.cfi_startproc
	push	rbp
.LCFI159:
	.cfi_def_cfa_offset 16
	.cfi_offset 6, -16
	mov	rbp, rsp
.LCFI160:
	.cfi_def_cfa_register 6
	mov	QWORD PTR [rbp-8], rdi
.LBB33:
	.loc 10 114 0
	mov	rax, QWORD PTR [rbp-8]
	mov	QWORD PTR [rax], 0
.LBE33:
	.loc 10 119 0
	pop	rbp
.LCFI161:
	.cfi_def_cfa 7, 8
	ret
	.cfi_endproc
.LFE1437:
	.size	_ZN5boost6detail12shared_countC2Ev, .-_ZN5boost6detail12shared_countC2Ev
	.weak	_ZN5boost6detail12shared_countC1Ev
	.set	_ZN5boost6detail12shared_countC1Ev,_ZN5boost6detail12shared_countC2Ev
	.section	.text._ZN5boost6detail12shared_countD2Ev,"axG",@progbits,_ZN5boost6detail12shared_countD5Ev,comdat
	.align 2
	.weak	_ZN5boost6detail12shared_countD2Ev
	.type	_ZN5boost6detail12shared_countD2Ev, @function
_ZN5boost6detail12shared_countD2Ev:
.LFB1446:
	.loc 10 369 0
	.cfi_startproc
	push	rbp
.LCFI162:
	.cfi_def_cfa_offset 16
	.cfi_offset 6, -16
	mov	rbp, rsp
.LCFI163:
	.cfi_def_cfa_register 6
	sub	rsp, 16
	mov	QWORD PTR [rbp-8], rdi
.LBB34:
	.loc 10 371 0
	mov	rax, QWORD PTR [rbp-8]
	mov	rax, QWORD PTR [rax]
	test	rax, rax
	je	.L136
	.loc 10 371 0 is_stmt 0 discriminator 1
	mov	rax, QWORD PTR [rbp-8]
	mov	rax, QWORD PTR [rax]
	mov	rdi, rax
	call	_ZN5boost6detail15sp_counted_base7releaseEv
.L136:
.LBE34:
	.loc 10 375 0 is_stmt 1
	leave
.LCFI164:
	.cfi_def_cfa 7, 8
	ret
	.cfi_endproc
.LFE1446:
	.size	_ZN5boost6detail12shared_countD2Ev, .-_ZN5boost6detail12shared_countD2Ev
	.weak	_ZN5boost6detail12shared_countD1Ev
	.set	_ZN5boost6detail12shared_countD1Ev,_ZN5boost6detail12shared_countD2Ev
	.section	.text._ZN5boost6detail12shared_countC2ERKS1_,"axG",@progbits,_ZN5boost6detail12shared_countC5ERKS1_,comdat
	.align 2
	.weak	_ZN5boost6detail12shared_countC2ERKS1_
	.type	_ZN5boost6detail12shared_countC2ERKS1_, @function
_ZN5boost6detail12shared_countC2ERKS1_:
.LFB1449:
	.loc 10 377 0
	.cfi_startproc
	push	rbp
.LCFI165:
	.cfi_def_cfa_offset 16
	.cfi_offset 6, -16
	mov	rbp, rsp
.LCFI166:
	.cfi_def_cfa_register 6
	sub	rsp, 16
	mov	QWORD PTR [rbp-8], rdi
	mov	QWORD PTR [rbp-16], rsi
.LBB35:
	.loc 10 377 0
	mov	rax, QWORD PTR [rbp-16]
	mov	rdx, QWORD PTR [rax]
	mov	rax, QWORD PTR [rbp-8]
	mov	QWORD PTR [rax], rdx
	.loc 10 382 0
	mov	rax, QWORD PTR [rbp-8]
	mov	rax, QWORD PTR [rax]
	test	rax, rax
	je	.L138
	.loc 10 382 0 is_stmt 0 discriminator 1
	mov	rax, QWORD PTR [rbp-8]
	mov	rax, QWORD PTR [rax]
	mov	rdi, rax
	call	_ZN5boost6detail15sp_counted_base12add_ref_copyEv
.L138:
.LBE35:
	.loc 10 383 0 is_stmt 1
	leave
.LCFI167:
	.cfi_def_cfa 7, 8
	ret
	.cfi_endproc
.LFE1449:
	.size	_ZN5boost6detail12shared_countC2ERKS1_, .-_ZN5boost6detail12shared_countC2ERKS1_
	.weak	_ZN5boost6detail12shared_countC1ERKS1_
	.set	_ZN5boost6detail12shared_countC1ERKS1_,_ZN5boost6detail12shared_countC2ERKS1_
	.section	.text._ZN5boost6detail12shared_count4swapERS1_,"axG",@progbits,_ZN5boost6detail12shared_count4swapERS1_,comdat
	.align 2
	.weak	_ZN5boost6detail12shared_count4swapERS1_
	.type	_ZN5boost6detail12shared_count4swapERS1_, @function
_ZN5boost6detail12shared_count4swapERS1_:
.LFB1452:
	.loc 10 414 0
	.cfi_startproc
	push	rbp
.LCFI168:
	.cfi_def_cfa_offset 16
	.cfi_offset 6, -16
	mov	rbp, rsp
.LCFI169:
	.cfi_def_cfa_register 6
	mov	QWORD PTR [rbp-24], rdi
	mov	QWORD PTR [rbp-32], rsi
.LBB36:
	.loc 10 416 0
	mov	rax, QWORD PTR [rbp-32]
	mov	rax, QWORD PTR [rax]
	mov	QWORD PTR [rbp-8], rax
	.loc 10 417 0
	mov	rax, QWORD PTR [rbp-24]
	mov	rdx, QWORD PTR [rax]
	mov	rax, QWORD PTR [rbp-32]
	mov	QWORD PTR [rax], rdx
	.loc 10 418 0
	mov	rax, QWORD PTR [rbp-24]
	mov	rdx, QWORD PTR [rbp-8]
	mov	QWORD PTR [rax], rdx
.LBE36:
	.loc 10 419 0
	pop	rbp
.LCFI170:
	.cfi_def_cfa 7, 8
	ret
	.cfi_endproc
.LFE1452:
	.size	_ZN5boost6detail12shared_count4swapERS1_, .-_ZN5boost6detail12shared_count4swapERS1_
	.section	.text._ZN5boost6detail10weak_countC2Ev,"axG",@progbits,_ZN5boost6detail10weak_countC5Ev,comdat
	.align 2
	.weak	_ZN5boost6detail10weak_countC2Ev
	.type	_ZN5boost6detail10weak_countC2Ev, @function
_ZN5boost6detail10weak_countC2Ev:
.LFB1461:
	.loc 10 472 0
	.cfi_startproc
	push	rbp
.LCFI171:
	.cfi_def_cfa_offset 16
	.cfi_offset 6, -16
	mov	rbp, rsp
.LCFI172:
	.cfi_def_cfa_register 6
	mov	QWORD PTR [rbp-8], rdi
.LBB37:
	.loc 10 472 0
	mov	rax, QWORD PTR [rbp-8]
	mov	QWORD PTR [rax], 0
.LBE37:
	.loc 10 477 0
	pop	rbp
.LCFI173:
	.cfi_def_cfa 7, 8
	ret
	.cfi_endproc
.LFE1461:
	.size	_ZN5boost6detail10weak_countC2Ev, .-_ZN5boost6detail10weak_countC2Ev
	.weak	_ZN5boost6detail10weak_countC1Ev
	.set	_ZN5boost6detail10weak_countC1Ev,_ZN5boost6detail10weak_countC2Ev
	.section	.text._ZN5boost6detail10weak_countD2Ev,"axG",@progbits,_ZN5boost6detail10weak_countD5Ev,comdat
	.align 2
	.weak	_ZN5boost6detail10weak_countD2Ev
	.type	_ZN5boost6detail10weak_countD2Ev, @function
_ZN5boost6detail10weak_countD2Ev:
.LFB1470:
	.loc 10 509 0
	.cfi_startproc
	push	rbp
.LCFI174:
	.cfi_def_cfa_offset 16
	.cfi_offset 6, -16
	mov	rbp, rsp
.LCFI175:
	.cfi_def_cfa_register 6
	sub	rsp, 16
	mov	QWORD PTR [rbp-8], rdi
.LBB38:
	.loc 10 511 0
	mov	rax, QWORD PTR [rbp-8]
	mov	rax, QWORD PTR [rax]
	test	rax, rax
	je	.L142
	.loc 10 511 0 is_stmt 0 discriminator 1
	mov	rax, QWORD PTR [rbp-8]
	mov	rax, QWORD PTR [rax]
	mov	rdi, rax
	call	_ZN5boost6detail15sp_counted_base12weak_releaseEv
.L142:
.LBE38:
	.loc 10 515 0 is_stmt 1
	leave
.LCFI176:
	.cfi_def_cfa 7, 8
	ret
	.cfi_endproc
.LFE1470:
	.size	_ZN5boost6detail10weak_countD2Ev, .-_ZN5boost6detail10weak_countD2Ev
	.weak	_ZN5boost6detail10weak_countD1Ev
	.set	_ZN5boost6detail10weak_countD1Ev,_ZN5boost6detail10weak_countD2Ev
	.section	.text._ZN5boost6detail10weak_countaSERKNS0_12shared_countE,"axG",@progbits,_ZN5boost6detail10weak_countaSERKNS0_12shared_countE,comdat
	.align 2
	.weak	_ZN5boost6detail10weak_countaSERKNS0_12shared_countE
	.type	_ZN5boost6detail10weak_countaSERKNS0_12shared_countE, @function
_ZN5boost6detail10weak_countaSERKNS0_12shared_countE:
.LFB1472:
	.loc 10 517 0
	.cfi_startproc
	push	rbp
.LCFI177:
	.cfi_def_cfa_offset 16
	.cfi_offset 6, -16
	mov	rbp, rsp
.LCFI178:
	.cfi_def_cfa_register 6
	sub	rsp, 32
	mov	QWORD PTR [rbp-24], rdi
	mov	QWORD PTR [rbp-32], rsi
.LBB39:
	.loc 10 519 0
	mov	rax, QWORD PTR [rbp-32]
	mov	rax, QWORD PTR [rax]
	mov	QWORD PTR [rbp-8], rax
	.loc 10 521 0
	mov	rax, QWORD PTR [rbp-24]
	mov	rax, QWORD PTR [rax]
	cmp	rax, QWORD PTR [rbp-8]
	je	.L145
	.loc 10 523 0
	cmp	QWORD PTR [rbp-8], 0
	je	.L146
	.loc 10 523 0 is_stmt 0 discriminator 1
	mov	rax, QWORD PTR [rbp-8]
	mov	rdi, rax
	call	_ZN5boost6detail15sp_counted_base12weak_add_refEv
.L146:
	.loc 10 524 0 is_stmt 1
	mov	rax, QWORD PTR [rbp-24]
	mov	rax, QWORD PTR [rax]
	test	rax, rax
	je	.L147
	.loc 10 524 0 is_stmt 0 discriminator 1
	mov	rax, QWORD PTR [rbp-24]
	mov	rax, QWORD PTR [rax]
	mov	rdi, rax
	call	_ZN5boost6detail15sp_counted_base12weak_releaseEv
.L147:
	.loc 10 525 0 is_stmt 1
	mov	rax, QWORD PTR [rbp-24]
	mov	rdx, QWORD PTR [rbp-8]
	mov	QWORD PTR [rax], rdx
.L145:
	.loc 10 528 0
	mov	rax, QWORD PTR [rbp-24]
.LBE39:
	.loc 10 529 0
	leave
.LCFI179:
	.cfi_def_cfa 7, 8
	ret
	.cfi_endproc
.LFE1472:
	.size	_ZN5boost6detail10weak_countaSERKNS0_12shared_countE, .-_ZN5boost6detail10weak_countaSERKNS0_12shared_countE
	.section	.text._ZNK5boost6detail10weak_count9use_countEv,"axG",@progbits,_ZNK5boost6detail10weak_count9use_countEv,comdat
	.align 2
	.weak	_ZNK5boost6detail10weak_count9use_countEv
	.type	_ZNK5boost6detail10weak_count9use_countEv, @function
_ZNK5boost6detail10weak_count9use_countEv:
.LFB1475:
	.loc 10 552 0
	.cfi_startproc
	push	rbp
.LCFI180:
	.cfi_def_cfa_offset 16
	.cfi_offset 6, -16
	mov	rbp, rsp
.LCFI181:
	.cfi_def_cfa_register 6
	sub	rsp, 16
	mov	QWORD PTR [rbp-8], rdi
	.loc 10 554 0
	mov	rax, QWORD PTR [rbp-8]
	mov	rax, QWORD PTR [rax]
	test	rax, rax
	je	.L150
	.loc 10 554 0 is_stmt 0 discriminator 1
	mov	rax, QWORD PTR [rbp-8]
	mov	rax, QWORD PTR [rax]
	mov	rdi, rax
	call	_ZNK5boost6detail15sp_counted_base9use_countEv
	jmp	.L151
.L150:
	.loc 10 554 0 discriminator 2
	mov	eax, 0
.L151:
	.loc 10 555 0 is_stmt 1 discriminator 3
	leave
.LCFI182:
	.cfi_def_cfa 7, 8
	ret
	.cfi_endproc
.LFE1475:
	.size	_ZNK5boost6detail10weak_count9use_countEv, .-_ZNK5boost6detail10weak_count9use_countEv
	.section	.text._ZN5boost6detail26sp_enable_shared_from_thisEz,"axG",@progbits,_ZN5boost6detail26sp_enable_shared_from_thisEz,comdat
	.weak	_ZN5boost6detail26sp_enable_shared_from_thisEz
	.type	_ZN5boost6detail26sp_enable_shared_from_thisEz, @function
_ZN5boost6detail26sp_enable_shared_from_thisEz:
.LFB1673:
	.file 11 "/usr/local/include/boost/smart_ptr/shared_ptr.hpp"
	.loc 11 234 0
	.cfi_startproc
	push	rbp
.LCFI183:
	.cfi_def_cfa_offset 16
	.cfi_offset 6, -16
	mov	rbp, rsp
.LCFI184:
	.cfi_def_cfa_register 6
	.loc 11 235 0
	pop	rbp
.LCFI185:
	.cfi_def_cfa 7, 8
	ret
	.cfi_endproc
.LFE1673:
	.size	_ZN5boost6detail26sp_enable_shared_from_thisEz, .-_ZN5boost6detail26sp_enable_shared_from_thisEz
	.section	.rodata
	.align 8
.LC2:
	.string	"/usr/local/include/boost/thread/pthread/pthread_mutex_scoped_lock.hpp"
.LC3:
	.string	"!pthread_mutex_lock(m)"
	.section	.text._ZN5boost7pthread25pthread_mutex_scoped_lockC2EP15pthread_mutex_t,"axG",@progbits,_ZN5boost7pthread25pthread_mutex_scoped_lockC5EP15pthread_mutex_t,comdat
	.align 2
	.weak	_ZN5boost7pthread25pthread_mutex_scoped_lockC2EP15pthread_mutex_t
	.type	_ZN5boost7pthread25pthread_mutex_scoped_lockC2EP15pthread_mutex_t, @function
_ZN5boost7pthread25pthread_mutex_scoped_lockC2EP15pthread_mutex_t:
.LFB3000:
	.file 12 "/usr/local/include/boost/thread/pthread/pthread_mutex_scoped_lock.hpp"
	.loc 12 23 0
	.cfi_startproc
	push	rbp
.LCFI186:
	.cfi_def_cfa_offset 16
	.cfi_offset 6, -16
	mov	rbp, rsp
.LCFI187:
	.cfi_def_cfa_register 6
	sub	rsp, 16
	mov	QWORD PTR [rbp-8], rdi
	mov	QWORD PTR [rbp-16], rsi
.LBB40:
	.loc 12 24 0
	mov	rax, QWORD PTR [rbp-8]
	mov	rdx, QWORD PTR [rbp-16]
	mov	QWORD PTR [rax], rdx
	mov	rax, QWORD PTR [rbp-8]
	mov	BYTE PTR [rax+8], 1
	.loc 12 26 0
	mov	rax, QWORD PTR [rbp-8]
	mov	rax, QWORD PTR [rax]
	mov	rdi, rax
	call	pthread_mutex_lock
	test	eax, eax
	je	.L154
	.loc 12 26 0 is_stmt 0 discriminator 1
	mov	ecx, OFFSET FLAT:_ZZN5boost7pthread25pthread_mutex_scoped_lockC1EP15pthread_mutex_tE19__PRETTY_FUNCTION__
	mov	edx, 26
	mov	esi, OFFSET FLAT:.LC2
	mov	edi, OFFSET FLAT:.LC3
	call	__assert_fail
.L154:
.LBE40:
	.loc 12 27 0 is_stmt 1
	leave
.LCFI188:
	.cfi_def_cfa 7, 8
	ret
	.cfi_endproc
.LFE3000:
	.size	_ZN5boost7pthread25pthread_mutex_scoped_lockC2EP15pthread_mutex_t, .-_ZN5boost7pthread25pthread_mutex_scoped_lockC2EP15pthread_mutex_t
	.weak	_ZN5boost7pthread25pthread_mutex_scoped_lockC1EP15pthread_mutex_t
	.set	_ZN5boost7pthread25pthread_mutex_scoped_lockC1EP15pthread_mutex_t,_ZN5boost7pthread25pthread_mutex_scoped_lockC2EP15pthread_mutex_t
	.section	.rodata
.LC4:
	.string	"!pthread_mutex_unlock(m)"
	.section	.text._ZN5boost7pthread25pthread_mutex_scoped_lock6unlockEv,"axG",@progbits,_ZN5boost7pthread25pthread_mutex_scoped_lock6unlockEv,comdat
	.align 2
	.weak	_ZN5boost7pthread25pthread_mutex_scoped_lock6unlockEv
	.type	_ZN5boost7pthread25pthread_mutex_scoped_lock6unlockEv, @function
_ZN5boost7pthread25pthread_mutex_scoped_lock6unlockEv:
.LFB3002:
	.loc 12 28 0
	.cfi_startproc
	push	rbp
.LCFI189:
	.cfi_def_cfa_offset 16
	.cfi_offset 6, -16
	mov	rbp, rsp
.LCFI190:
	.cfi_def_cfa_register 6
	sub	rsp, 16
	mov	QWORD PTR [rbp-8], rdi
.LBB41:
	.loc 12 30 0
	mov	rax, QWORD PTR [rbp-8]
	mov	rax, QWORD PTR [rax]
	mov	rdi, rax
	call	pthread_mutex_unlock
	test	eax, eax
	je	.L157
	.loc 12 30 0 is_stmt 0 discriminator 1
	mov	ecx, OFFSET FLAT:_ZZN5boost7pthread25pthread_mutex_scoped_lock6unlockEvE19__PRETTY_FUNCTION__
	mov	edx, 30
	mov	esi, OFFSET FLAT:.LC2
	mov	edi, OFFSET FLAT:.LC4
	call	__assert_fail
.L157:
	.loc 12 31 0 is_stmt 1
	mov	rax, QWORD PTR [rbp-8]
	mov	BYTE PTR [rax+8], 0
.LBE41:
	.loc 12 32 0
	leave
.LCFI191:
	.cfi_def_cfa 7, 8
	ret
	.cfi_endproc
.LFE3002:
	.size	_ZN5boost7pthread25pthread_mutex_scoped_lock6unlockEv, .-_ZN5boost7pthread25pthread_mutex_scoped_lock6unlockEv
	.section	.text._ZN5boost7pthread25pthread_mutex_scoped_lockD2Ev,"axG",@progbits,_ZN5boost7pthread25pthread_mutex_scoped_lockD5Ev,comdat
	.align 2
	.weak	_ZN5boost7pthread25pthread_mutex_scoped_lockD2Ev
	.type	_ZN5boost7pthread25pthread_mutex_scoped_lockD2Ev, @function
_ZN5boost7pthread25pthread_mutex_scoped_lockD2Ev:
.LFB3004:
	.loc 12 34 0
	.cfi_startproc
	push	rbp
.LCFI192:
	.cfi_def_cfa_offset 16
	.cfi_offset 6, -16
	mov	rbp, rsp
.LCFI193:
	.cfi_def_cfa_register 6
	sub	rsp, 16
	mov	QWORD PTR [rbp-8], rdi
.LBB42:
	.loc 12 36 0
	mov	rax, QWORD PTR [rbp-8]
	movzx	eax, BYTE PTR [rax+8]
	test	al, al
	je	.L158
	.loc 12 38 0
	mov	rax, QWORD PTR [rbp-8]
	mov	rdi, rax
	call	_ZN5boost7pthread25pthread_mutex_scoped_lock6unlockEv
.L158:
.LBE42:
	.loc 12 40 0
	leave
.LCFI194:
	.cfi_def_cfa 7, 8
	ret
	.cfi_endproc
.LFE3004:
	.size	_ZN5boost7pthread25pthread_mutex_scoped_lockD2Ev, .-_ZN5boost7pthread25pthread_mutex_scoped_lockD2Ev
	.weak	_ZN5boost7pthread25pthread_mutex_scoped_lockD1Ev
	.set	_ZN5boost7pthread25pthread_mutex_scoped_lockD1Ev,_ZN5boost7pthread25pthread_mutex_scoped_lockD2Ev
	.section	.rodata
	.align 8
.LC5:
	.string	"boost:: mutex constructor failed in pthread_mutex_init"
	.section	.text._ZN5boost5mutexC2Ev,"axG",@progbits,_ZN5boost5mutexC5Ev,comdat
	.align 2
	.weak	_ZN5boost5mutexC2Ev
	.type	_ZN5boost5mutexC2Ev, @function
_ZN5boost5mutexC2Ev:
.LFB3018:
	.file 13 "/usr/local/include/boost/thread/pthread/mutex.hpp"
	.loc 13 45 0
	.cfi_startproc
	.cfi_personality 0x3,__gxx_personality_v0
	.cfi_lsda 0x3,.LLSDA3018
	push	rbp
.LCFI195:
	.cfi_def_cfa_offset 16
	.cfi_offset 6, -16
	mov	rbp, rsp
.LCFI196:
	.cfi_def_cfa_register 6
	push	rbx
	sub	rsp, 72
	.cfi_offset 3, -24
	mov	QWORD PTR [rbp-72], rdi
.LBB43:
.LBB44:
	.loc 13 47 0
	mov	rax, QWORD PTR [rbp-72]
	mov	esi, 0
	mov	rdi, rax
	call	pthread_mutex_init
	mov	DWORD PTR [rbp-20], eax
	.loc 13 48 0
	cmp	DWORD PTR [rbp-20], 0
	je	.L164
	.loc 13 50 0
	mov	ecx, DWORD PTR [rbp-20]
	lea	rax, [rbp-64]
	mov	edx, OFFSET FLAT:.LC5
	mov	esi, ecx
	mov	rdi, rax
.LEHB27:
	call	_ZN5boost21thread_resource_errorC1EiPKc
.LEHE27:
	lea	rax, [rbp-64]
	mov	rdi, rax
.LEHB28:
	call	_ZN5boost15throw_exceptionINS_21thread_resource_errorEEEvRKT_
.LEHE28:
.L163:
	mov	rbx, rax
	lea	rax, [rbp-64]
	mov	rdi, rax
	call	_ZN5boost21thread_resource_errorD1Ev
	mov	rax, rbx
	mov	rdi, rax
.LEHB29:
	call	_Unwind_Resume
.LEHE29:
.L164:
.LBE44:
.LBE43:
	.loc 13 52 0
	nop
.L160:
	add	rsp, 72
	pop	rbx
	pop	rbp
.LCFI197:
	.cfi_def_cfa 7, 8
	ret
	.cfi_endproc
.LFE3018:
	.section	.gcc_except_table
.LLSDA3018:
	.byte	0xff
	.byte	0xff
	.byte	0x1
	.uleb128 .LLSDACSE3018-.LLSDACSB3018
.LLSDACSB3018:
	.uleb128 .LEHB27-.LFB3018
	.uleb128 .LEHE27-.LEHB27
	.uleb128 0
	.uleb128 0
	.uleb128 .LEHB28-.LFB3018
	.uleb128 .LEHE28-.LEHB28
	.uleb128 .L163-.LFB3018
	.uleb128 0
	.uleb128 .LEHB29-.LFB3018
	.uleb128 .LEHE29-.LEHB29
	.uleb128 0
	.uleb128 0
.LLSDACSE3018:
	.section	.text._ZN5boost5mutexC2Ev,"axG",@progbits,_ZN5boost5mutexC5Ev,comdat
	.size	_ZN5boost5mutexC2Ev, .-_ZN5boost5mutexC2Ev
	.weak	_ZN5boost5mutexC1Ev
	.set	_ZN5boost5mutexC1Ev,_ZN5boost5mutexC2Ev
	.section	.text._ZN5boost5mutexD2Ev,"axG",@progbits,_ZN5boost5mutexD5Ev,comdat
	.align 2
	.weak	_ZN5boost5mutexD2Ev
	.type	_ZN5boost5mutexD2Ev, @function
_ZN5boost5mutexD2Ev:
.LFB3021:
	.loc 13 53 0
	.cfi_startproc
	push	rbp
.LCFI198:
	.cfi_def_cfa_offset 16
	.cfi_offset 6, -16
	mov	rbp, rsp
.LCFI199:
	.cfi_def_cfa_register 6
	sub	rsp, 32
	mov	QWORD PTR [rbp-24], rdi
.L166:
.LBB45:
.LBB46:
	.loc 13 58 0 discriminator 1
	mov	rax, QWORD PTR [rbp-24]
	mov	rdi, rax
	call	pthread_mutex_destroy
	mov	DWORD PTR [rbp-4], eax
	.loc 13 56 0 discriminator 1
	cmp	DWORD PTR [rbp-4], 4
	sete	al
	test	al, al
	jne	.L166
.LBE46:
.LBE45:
	.loc 13 60 0
	leave
.LCFI200:
	.cfi_def_cfa 7, 8
	ret
	.cfi_endproc
.LFE3021:
	.size	_ZN5boost5mutexD2Ev, .-_ZN5boost5mutexD2Ev
	.weak	_ZN5boost5mutexD1Ev
	.set	_ZN5boost5mutexD1Ev,_ZN5boost5mutexD2Ev
	.section	.rodata
	.align 8
.LC6:
	.string	"boost: mutex lock failed in pthread_mutex_lock"
	.section	.text._ZN5boost5mutex4lockEv,"axG",@progbits,_ZN5boost5mutex4lockEv,comdat
	.align 2
	.weak	_ZN5boost5mutex4lockEv
	.type	_ZN5boost5mutex4lockEv, @function
_ZN5boost5mutex4lockEv:
.LFB3023:
	.loc 13 62 0
	.cfi_startproc
	.cfi_personality 0x3,__gxx_personality_v0
	.cfi_lsda 0x3,.LLSDA3023
	push	rbp
.LCFI201:
	.cfi_def_cfa_offset 16
	.cfi_offset 6, -16
	mov	rbp, rsp
.LCFI202:
	.cfi_def_cfa_register 6
	push	rbx
	sub	rsp, 72
	.cfi_offset 3, -24
	mov	QWORD PTR [rbp-72], rdi
.L169:
.LBB47:
	.loc 13 67 0 discriminator 1
	mov	rax, QWORD PTR [rbp-72]
	mov	rdi, rax
	call	pthread_mutex_lock
	mov	DWORD PTR [rbp-20], eax
	.loc 13 65 0 discriminator 1
	cmp	DWORD PTR [rbp-20], 4
	sete	al
	test	al, al
	jne	.L169
	.loc 13 69 0
	cmp	DWORD PTR [rbp-20], 0
	je	.L173
	.loc 13 71 0
	mov	ecx, DWORD PTR [rbp-20]
	lea	rax, [rbp-64]
	mov	edx, OFFSET FLAT:.LC6
	mov	esi, ecx
	mov	rdi, rax
.LEHB30:
	call	_ZN5boost10lock_errorC1EiPKc
.LEHE30:
	lea	rax, [rbp-64]
	mov	rdi, rax
.LEHB31:
	call	_ZN5boost15throw_exceptionINS_10lock_errorEEEvRKT_
.LEHE31:
.L172:
	mov	rbx, rax
	lea	rax, [rbp-64]
	mov	rdi, rax
	call	_ZN5boost10lock_errorD1Ev
	mov	rax, rbx
	mov	rdi, rax
.LEHB32:
	call	_Unwind_Resume
.LEHE32:
.L173:
.LBE47:
	.loc 13 73 0
	nop
.L168:
	add	rsp, 72
	pop	rbx
	pop	rbp
.LCFI203:
	.cfi_def_cfa 7, 8
	ret
	.cfi_endproc
.LFE3023:
	.section	.gcc_except_table
.LLSDA3023:
	.byte	0xff
	.byte	0xff
	.byte	0x1
	.uleb128 .LLSDACSE3023-.LLSDACSB3023
.LLSDACSB3023:
	.uleb128 .LEHB30-.LFB3023
	.uleb128 .LEHE30-.LEHB30
	.uleb128 0
	.uleb128 0
	.uleb128 .LEHB31-.LFB3023
	.uleb128 .LEHE31-.LEHB31
	.uleb128 .L172-.LFB3023
	.uleb128 0
	.uleb128 .LEHB32-.LFB3023
	.uleb128 .LEHE32-.LEHB32
	.uleb128 0
	.uleb128 0
.LLSDACSE3023:
	.section	.text._ZN5boost5mutex4lockEv,"axG",@progbits,_ZN5boost5mutex4lockEv,comdat
	.size	_ZN5boost5mutex4lockEv, .-_ZN5boost5mutex4lockEv
	.section	.rodata
	.align 8
.LC7:
	.string	"boost: mutex unlock failed in pthread_mutex_lock"
	.section	.text._ZN5boost5mutex6unlockEv,"axG",@progbits,_ZN5boost5mutex6unlockEv,comdat
	.align 2
	.weak	_ZN5boost5mutex6unlockEv
	.type	_ZN5boost5mutex6unlockEv, @function
_ZN5boost5mutex6unlockEv:
.LFB3024:
	.loc 13 75 0
	.cfi_startproc
	.cfi_personality 0x3,__gxx_personality_v0
	.cfi_lsda 0x3,.LLSDA3024
	push	rbp
.LCFI204:
	.cfi_def_cfa_offset 16
	.cfi_offset 6, -16
	mov	rbp, rsp
.LCFI205:
	.cfi_def_cfa_register 6
	push	rbx
	sub	rsp, 72
	.cfi_offset 3, -24
	mov	QWORD PTR [rbp-72], rdi
.L175:
.LBB48:
	.loc 13 80 0 discriminator 1
	mov	rax, QWORD PTR [rbp-72]
	mov	rdi, rax
	call	pthread_mutex_unlock
	mov	DWORD PTR [rbp-20], eax
	.loc 13 78 0 discriminator 1
	cmp	DWORD PTR [rbp-20], 4
	sete	al
	test	al, al
	jne	.L175
	.loc 13 82 0
	cmp	DWORD PTR [rbp-20], 0
	je	.L179
	.loc 13 84 0
	mov	ecx, DWORD PTR [rbp-20]
	lea	rax, [rbp-64]
	mov	edx, OFFSET FLAT:.LC7
	mov	esi, ecx
	mov	rdi, rax
.LEHB33:
	call	_ZN5boost10lock_errorC1EiPKc
.LEHE33:
	lea	rax, [rbp-64]
	mov	rdi, rax
.LEHB34:
	call	_ZN5boost15throw_exceptionINS_10lock_errorEEEvRKT_
.LEHE34:
.L178:
	mov	rbx, rax
	lea	rax, [rbp-64]
	mov	rdi, rax
	call	_ZN5boost10lock_errorD1Ev
	mov	rax, rbx
	mov	rdi, rax
.LEHB35:
	call	_Unwind_Resume
.LEHE35:
.L179:
.LBE48:
	.loc 13 86 0
	nop
.L174:
	add	rsp, 72
	pop	rbx
	pop	rbp
.LCFI206:
	.cfi_def_cfa 7, 8
	ret
	.cfi_endproc
.LFE3024:
	.section	.gcc_except_table
.LLSDA3024:
	.byte	0xff
	.byte	0xff
	.byte	0x1
	.uleb128 .LLSDACSE3024-.LLSDACSB3024
.LLSDACSB3024:
	.uleb128 .LEHB33-.LFB3024
	.uleb128 .LEHE33-.LEHB33
	.uleb128 0
	.uleb128 0
	.uleb128 .LEHB34-.LFB3024
	.uleb128 .LEHE34-.LEHB34
	.uleb128 .L178-.LFB3024
	.uleb128 0
	.uleb128 .LEHB35-.LFB3024
	.uleb128 .LEHE35-.LEHB35
	.uleb128 0
	.uleb128 0
.LLSDACSE3024:
	.section	.text._ZN5boost5mutex6unlockEv,"axG",@progbits,_ZN5boost5mutex6unlockEv,comdat
	.size	_ZN5boost5mutex6unlockEv, .-_ZN5boost5mutex6unlockEv
	.section	.rodata
	.align 8
.LC8:
	.string	"boost::condition_variable::condition_variable() constructor failed in pthread_mutex_init"
	.align 8
.LC9:
	.string	"/usr/local/include/boost/thread/pthread/condition_variable_fwd.hpp"
	.align 8
.LC10:
	.string	"!pthread_mutex_destroy(&internal_mutex)"
	.align 8
.LC11:
	.string	"boost::condition_variable::condition_variable() constructor failed in pthread_cond_init"
	.section	.text._ZN5boost18condition_variableC2Ev,"axG",@progbits,_ZN5boost18condition_variableC5Ev,comdat
	.align 2
	.weak	_ZN5boost18condition_variableC2Ev
	.type	_ZN5boost18condition_variableC2Ev, @function
_ZN5boost18condition_variableC2Ev:
.LFB3079:
	.file 14 "/usr/local/include/boost/thread/pthread/condition_variable_fwd.hpp"
	.loc 14 56 0
	.cfi_startproc
	.cfi_personality 0x3,__gxx_personality_v0
	.cfi_lsda 0x3,.LLSDA3079
	push	rbp
.LCFI207:
	.cfi_def_cfa_offset 16
	.cfi_offset 6, -16
	mov	rbp, rsp
.LCFI208:
	.cfi_def_cfa_register 6
	push	rbx
	sub	rsp, 120
	.cfi_offset 3, -24
	mov	QWORD PTR [rbp-120], rdi
.LBB49:
.LBB50:
	.loc 14 59 0
	mov	rax, QWORD PTR [rbp-120]
	mov	esi, 0
	mov	rdi, rax
	call	pthread_mutex_init
	mov	DWORD PTR [rbp-20], eax
	.loc 14 60 0
	cmp	DWORD PTR [rbp-20], 0
	je	.L181
	.loc 14 62 0
	mov	ecx, DWORD PTR [rbp-20]
	lea	rax, [rbp-112]
	mov	edx, OFFSET FLAT:.LC8
	mov	esi, ecx
	mov	rdi, rax
.LEHB36:
	call	_ZN5boost21thread_resource_errorC1EiPKc
.LEHE36:
	lea	rax, [rbp-112]
	mov	rdi, rax
.LEHB37:
	call	_ZN5boost15throw_exceptionINS_21thread_resource_errorEEEvRKT_
.LEHE37:
.L181:
	.loc 14 65 0
	mov	rax, QWORD PTR [rbp-120]
	add	rax, 40
	mov	esi, 0
	mov	rdi, rax
	call	pthread_cond_init
	mov	DWORD PTR [rbp-24], eax
	.loc 14 66 0
	cmp	DWORD PTR [rbp-24], 0
	je	.L188
	.loc 14 69 0
	mov	rax, QWORD PTR [rbp-120]
	mov	rdi, rax
	call	pthread_mutex_destroy
	test	eax, eax
	je	.L183
	.loc 14 69 0 is_stmt 0 discriminator 1
	mov	ecx, OFFSET FLAT:_ZZN5boost18condition_variableC1EvE19__PRETTY_FUNCTION__
	mov	edx, 69
	mov	esi, OFFSET FLAT:.LC9
	mov	edi, OFFSET FLAT:.LC10
	call	__assert_fail
.L183:
	.loc 14 71 0 is_stmt 1
	mov	ecx, DWORD PTR [rbp-24]
	lea	rax, [rbp-64]
	mov	edx, OFFSET FLAT:.LC11
	mov	esi, ecx
	mov	rdi, rax
.LEHB38:
	call	_ZN5boost21thread_resource_errorC1EiPKc
.LEHE38:
	lea	rax, [rbp-64]
	mov	rdi, rax
.LEHB39:
	call	_ZN5boost15throw_exceptionINS_21thread_resource_errorEEEvRKT_
.LEHE39:
.L186:
	mov	rbx, rax
	.loc 14 62 0
	lea	rax, [rbp-112]
	mov	rdi, rax
	call	_ZN5boost21thread_resource_errorD1Ev
	mov	rax, rbx
	mov	rdi, rax
.LEHB40:
	call	_Unwind_Resume
.L187:
	mov	rbx, rax
	.loc 14 71 0
	lea	rax, [rbp-64]
	mov	rdi, rax
	call	_ZN5boost21thread_resource_errorD1Ev
	mov	rax, rbx
	mov	rdi, rax
	call	_Unwind_Resume
.LEHE40:
.L188:
.LBE50:
.LBE49:
	.loc 14 73 0
	nop
.L180:
	add	rsp, 120
	pop	rbx
	pop	rbp
.LCFI209:
	.cfi_def_cfa 7, 8
	ret
	.cfi_endproc
.LFE3079:
	.section	.gcc_except_table
.LLSDA3079:
	.byte	0xff
	.byte	0xff
	.byte	0x1
	.uleb128 .LLSDACSE3079-.LLSDACSB3079
.LLSDACSB3079:
	.uleb128 .LEHB36-.LFB3079
	.uleb128 .LEHE36-.LEHB36
	.uleb128 0
	.uleb128 0
	.uleb128 .LEHB37-.LFB3079
	.uleb128 .LEHE37-.LEHB37
	.uleb128 .L186-.LFB3079
	.uleb128 0
	.uleb128 .LEHB38-.LFB3079
	.uleb128 .LEHE38-.LEHB38
	.uleb128 0
	.uleb128 0
	.uleb128 .LEHB39-.LFB3079
	.uleb128 .LEHE39-.LEHB39
	.uleb128 .L187-.LFB3079
	.uleb128 0
	.uleb128 .LEHB40-.LFB3079
	.uleb128 .LEHE40-.LEHB40
	.uleb128 0
	.uleb128 0
.LLSDACSE3079:
	.section	.text._ZN5boost18condition_variableC2Ev,"axG",@progbits,_ZN5boost18condition_variableC5Ev,comdat
	.size	_ZN5boost18condition_variableC2Ev, .-_ZN5boost18condition_variableC2Ev
	.weak	_ZN5boost18condition_variableC1Ev
	.set	_ZN5boost18condition_variableC1Ev,_ZN5boost18condition_variableC2Ev
	.section	.rodata
.LC12:
	.string	"!ret"
	.section	.text._ZN5boost18condition_variableD2Ev,"axG",@progbits,_ZN5boost18condition_variableD5Ev,comdat
	.align 2
	.weak	_ZN5boost18condition_variableD2Ev
	.type	_ZN5boost18condition_variableD2Ev, @function
_ZN5boost18condition_variableD2Ev:
.LFB3082:
	.loc 14 74 0
	.cfi_startproc
	push	rbp
.LCFI210:
	.cfi_def_cfa_offset 16
	.cfi_offset 6, -16
	mov	rbp, rsp
.LCFI211:
	.cfi_def_cfa_register 6
	sub	rsp, 32
	mov	QWORD PTR [rbp-24], rdi
.L190:
.LBB51:
.LBB52:
	.loc 14 79 0 discriminator 1
	mov	rax, QWORD PTR [rbp-24]
	mov	rdi, rax
	call	pthread_mutex_destroy
	mov	DWORD PTR [rbp-4], eax
	.loc 14 78 0 discriminator 1
	cmp	DWORD PTR [rbp-4], 4
	sete	al
	test	al, al
	jne	.L190
	.loc 14 81 0
	cmp	DWORD PTR [rbp-4], 0
	je	.L191
	.loc 14 81 0 is_stmt 0 discriminator 1
	mov	ecx, OFFSET FLAT:_ZZN5boost18condition_variableD1EvE19__PRETTY_FUNCTION__
	mov	edx, 81
	mov	esi, OFFSET FLAT:.LC9
	mov	edi, OFFSET FLAT:.LC12
	call	__assert_fail
.L191:
	.loc 14 84 0 is_stmt 1 discriminator 1
	mov	rax, QWORD PTR [rbp-24]
	add	rax, 40
	mov	rdi, rax
	call	pthread_cond_destroy
	mov	DWORD PTR [rbp-4], eax
	.loc 14 83 0 discriminator 1
	cmp	DWORD PTR [rbp-4], 4
	sete	al
	test	al, al
	jne	.L191
	.loc 14 86 0
	cmp	DWORD PTR [rbp-4], 0
	je	.L189
	.loc 14 86 0 is_stmt 0 discriminator 1
	mov	ecx, OFFSET FLAT:_ZZN5boost18condition_variableD1EvE19__PRETTY_FUNCTION__
	mov	edx, 86
	mov	esi, OFFSET FLAT:.LC9
	mov	edi, OFFSET FLAT:.LC12
	call	__assert_fail
.L189:
.LBE52:
.LBE51:
	.loc 14 87 0 is_stmt 1
	leave
.LCFI212:
	.cfi_def_cfa 7, 8
	ret
	.cfi_endproc
.LFE3082:
	.size	_ZN5boost18condition_variableD2Ev, .-_ZN5boost18condition_variableD2Ev
	.weak	_ZN5boost18condition_variableD1Ev
	.set	_ZN5boost18condition_variableD1Ev,_ZN5boost18condition_variableD2Ev
	.section	.text._ZN5boost10shared_ptrINS_6detail20tss_cleanup_functionEED2Ev,"axG",@progbits,_ZN5boost10shared_ptrINS_6detail20tss_cleanup_functionEED5Ev,comdat
	.align 2
	.weak	_ZN5boost10shared_ptrINS_6detail20tss_cleanup_functionEED2Ev
	.type	_ZN5boost10shared_ptrINS_6detail20tss_cleanup_functionEED2Ev, @function
_ZN5boost10shared_ptrINS_6detail20tss_cleanup_functionEED2Ev:
.LFB3542:
	.loc 11 328 0
	.cfi_startproc
	push	rbp
.LCFI213:
	.cfi_def_cfa_offset 16
	.cfi_offset 6, -16
	mov	rbp, rsp
.LCFI214:
	.cfi_def_cfa_register 6
	sub	rsp, 16
	mov	QWORD PTR [rbp-8], rdi
.LBB53:
	.loc 11 328 0
	mov	rax, QWORD PTR [rbp-8]
	add	rax, 8
	mov	rdi, rax
	call	_ZN5boost6detail12shared_countD1Ev
.LBE53:
	leave
.LCFI215:
	.cfi_def_cfa 7, 8
	ret
	.cfi_endproc
.LFE3542:
	.size	_ZN5boost10shared_ptrINS_6detail20tss_cleanup_functionEED2Ev, .-_ZN5boost10shared_ptrINS_6detail20tss_cleanup_functionEED2Ev
	.weak	_ZN5boost10shared_ptrINS_6detail20tss_cleanup_functionEED1Ev
	.set	_ZN5boost10shared_ptrINS_6detail20tss_cleanup_functionEED1Ev,_ZN5boost10shared_ptrINS_6detail20tss_cleanup_functionEED2Ev
	.section	.text._ZN5boost10shared_ptrINS_6detail16thread_data_baseEED2Ev,"axG",@progbits,_ZN5boost10shared_ptrINS_6detail16thread_data_baseEED5Ev,comdat
	.align 2
	.weak	_ZN5boost10shared_ptrINS_6detail16thread_data_baseEED2Ev
	.type	_ZN5boost10shared_ptrINS_6detail16thread_data_baseEED2Ev, @function
_ZN5boost10shared_ptrINS_6detail16thread_data_baseEED2Ev:
.LFB3548:
	.loc 11 328 0
	.cfi_startproc
	push	rbp
.LCFI216:
	.cfi_def_cfa_offset 16
	.cfi_offset 6, -16
	mov	rbp, rsp
.LCFI217:
	.cfi_def_cfa_register 6
	sub	rsp, 16
	mov	QWORD PTR [rbp-8], rdi
.LBB54:
	.loc 11 328 0
	mov	rax, QWORD PTR [rbp-8]
	add	rax, 8
	mov	rdi, rax
	call	_ZN5boost6detail12shared_countD1Ev
.LBE54:
	leave
.LCFI218:
	.cfi_def_cfa 7, 8
	ret
	.cfi_endproc
.LFE3548:
	.size	_ZN5boost10shared_ptrINS_6detail16thread_data_baseEED2Ev, .-_ZN5boost10shared_ptrINS_6detail16thread_data_baseEED2Ev
	.weak	_ZN5boost10shared_ptrINS_6detail16thread_data_baseEED1Ev
	.set	_ZN5boost10shared_ptrINS_6detail16thread_data_baseEED1Ev,_ZN5boost10shared_ptrINS_6detail16thread_data_baseEED2Ev
	.section	.text._ZNSt3mapIPKvN5boost6detail13tss_data_nodeESt4lessIS1_ESaISt4pairIKS1_S4_EEED2Ev,"axG",@progbits,_ZNSt3mapIPKvN5boost6detail13tss_data_nodeESt4lessIS1_ESaISt4pairIKS1_S4_EEED5Ev,comdat
	.align 2
	.weak	_ZNSt3mapIPKvN5boost6detail13tss_data_nodeESt4lessIS1_ESaISt4pairIKS1_S4_EEED2Ev
	.type	_ZNSt3mapIPKvN5boost6detail13tss_data_nodeESt4lessIS1_ESaISt4pairIKS1_S4_EEED2Ev, @function
_ZNSt3mapIPKvN5boost6detail13tss_data_nodeESt4lessIS1_ESaISt4pairIKS1_S4_EEED2Ev:
.LFB3551:
	.file 15 "/usr/include/c++/4.7/bits/stl_map.h"
	.loc 15 90 0
	.cfi_startproc
	push	rbp
.LCFI219:
	.cfi_def_cfa_offset 16
	.cfi_offset 6, -16
	mov	rbp, rsp
.LCFI220:
	.cfi_def_cfa_register 6
	sub	rsp, 16
	mov	QWORD PTR [rbp-8], rdi
.LBB55:
	.loc 15 90 0
	mov	rax, QWORD PTR [rbp-8]
	mov	rdi, rax
	call	_ZNSt8_Rb_treeIPKvSt4pairIKS1_N5boost6detail13tss_data_nodeEESt10_Select1stIS7_ESt4lessIS1_ESaIS7_EED1Ev
.LBE55:
	leave
.LCFI221:
	.cfi_def_cfa 7, 8
	ret
	.cfi_endproc
.LFE3551:
	.size	_ZNSt3mapIPKvN5boost6detail13tss_data_nodeESt4lessIS1_ESaISt4pairIKS1_S4_EEED2Ev, .-_ZNSt3mapIPKvN5boost6detail13tss_data_nodeESt4lessIS1_ESaISt4pairIKS1_S4_EEED2Ev
	.weak	_ZNSt3mapIPKvN5boost6detail13tss_data_nodeESt4lessIS1_ESaISt4pairIKS1_S4_EEED1Ev
	.set	_ZNSt3mapIPKvN5boost6detail13tss_data_nodeESt4lessIS1_ESaISt4pairIKS1_S4_EEED1Ev,_ZNSt3mapIPKvN5boost6detail13tss_data_nodeESt4lessIS1_ESaISt4pairIKS1_S4_EEED2Ev
	.section	.text._ZN5boost6detail16thread_data_baseC2Ev,"axG",@progbits,_ZN5boost6detail16thread_data_baseC5Ev,comdat
	.align 2
	.weak	_ZN5boost6detail16thread_data_baseC2Ev
	.type	_ZN5boost6detail16thread_data_baseC2Ev, @function
_ZN5boost6detail16thread_data_baseC2Ev:
.LFB3553:
	.file 16 "/usr/local/include/boost/thread/pthread/thread_data.hpp"
	.loc 16 134 0
	.cfi_startproc
	.cfi_personality 0x3,__gxx_personality_v0
	.cfi_lsda 0x3,.LLSDA3553
	push	rbp
.LCFI222:
	.cfi_def_cfa_offset 16
	.cfi_offset 6, -16
	mov	rbp, rsp
.LCFI223:
	.cfi_def_cfa_register 6
	push	rbx
	sub	rsp, 24
	.cfi_offset 3, -24
	mov	QWORD PTR [rbp-24], rdi
.LBB56:
	.loc 16 142 0
	mov	rax, QWORD PTR [rbp-24]
	add	rax, 8
	mov	rdi, rax
.LEHB41:
	call	_ZN5boost23enable_shared_from_thisINS_6detail16thread_data_baseEEC2Ev
.LEHE41:
	mov	rax, QWORD PTR [rbp-24]
	mov	QWORD PTR [rax], OFFSET FLAT:_ZTVN5boost6detail16thread_data_baseE+16
	mov	rax, QWORD PTR [rbp-24]
	add	rax, 24
	mov	rdi, rax
.LEHB42:
	call	_ZN5boost10shared_ptrINS_6detail16thread_data_baseEEC1Ev
.LEHE42:
	.loc 16 142 0 is_stmt 0 discriminator 1
	mov	rax, QWORD PTR [rbp-24]
	add	rax, 48
	mov	rdi, rax
.LEHB43:
	call	_ZN5boost5mutexC1Ev
.LEHE43:
	.loc 16 142 0 discriminator 2
	mov	rax, QWORD PTR [rbp-24]
	add	rax, 88
	mov	rdi, rax
.LEHB44:
	call	_ZN5boost18condition_variableC1Ev
.LEHE44:
	.loc 16 142 0 discriminator 3
	mov	rax, QWORD PTR [rbp-24]
	add	rax, 176
	mov	rdi, rax
.LEHB45:
	call	_ZN5boost5mutexC1Ev
.LEHE45:
	.loc 16 142 0 discriminator 4
	mov	rax, QWORD PTR [rbp-24]
	add	rax, 216
	mov	rdi, rax
.LEHB46:
	call	_ZN5boost18condition_variableC1Ev
.LEHE46:
	.loc 16 142 0 discriminator 5
	mov	rax, QWORD PTR [rbp-24]
	mov	BYTE PTR [rax+304], 0
	mov	rax, QWORD PTR [rbp-24]
	mov	BYTE PTR [rax+305], 0
	mov	rax, QWORD PTR [rbp-24]
	mov	BYTE PTR [rax+306], 0
	mov	rax, QWORD PTR [rbp-24]
	mov	QWORD PTR [rax+312], 0
	mov	rax, QWORD PTR [rbp-24]
	add	rax, 320
	mov	rdi, rax
.LEHB47:
	call	_ZNSt3mapIPKvN5boost6detail13tss_data_nodeESt4lessIS1_ESaISt4pairIKS1_S4_EEEC1Ev
.LEHE47:
	.loc 16 142 0 discriminator 6
	mov	rax, QWORD PTR [rbp-24]
	mov	QWORD PTR [rax+376], 0
	mov	rax, QWORD PTR [rbp-24]
	add	rax, 384
	mov	rdi, rax
.LEHB48:
	call	_ZNSt6vectorISt4pairIPN5boost18condition_variableEPNS1_5mutexEESaIS6_EEC1Ev
.LEHE48:
	.loc 16 142 0 discriminator 7
	mov	rax, QWORD PTR [rbp-24]
	add	rax, 408
	mov	rdi, rax
.LEHB49:
	call	_ZNSt6vectorIN5boost10shared_ptrINS0_6detail18future_object_baseEEESaIS4_EEC1Ev
.LEHE49:
	.loc 16 142 0 discriminator 8
	mov	rax, QWORD PTR [rbp-24]
	mov	BYTE PTR [rax+432], 1
	mov	rax, QWORD PTR [rbp-24]
	mov	BYTE PTR [rax+433], 0
	jmp	.L216
.L215:
	mov	rbx, rax
	.loc 16 142 0
	mov	rax, QWORD PTR [rbp-24]
	add	rax, 384
	mov	rdi, rax
	call	_ZNSt6vectorISt4pairIPN5boost18condition_variableEPNS1_5mutexEESaIS6_EED1Ev
	jmp	.L201
.L214:
	mov	rbx, rax
.L201:
	mov	rax, QWORD PTR [rbp-24]
	add	rax, 320
	mov	rdi, rax
	call	_ZNSt3mapIPKvN5boost6detail13tss_data_nodeESt4lessIS1_ESaISt4pairIKS1_S4_EEED1Ev
	jmp	.L202
.L213:
	mov	rbx, rax
.L202:
	mov	rax, QWORD PTR [rbp-24]
	add	rax, 216
	mov	rdi, rax
	call	_ZN5boost18condition_variableD1Ev
	jmp	.L203
.L212:
	mov	rbx, rax
.L203:
	mov	rax, QWORD PTR [rbp-24]
	add	rax, 176
	mov	rdi, rax
	call	_ZN5boost5mutexD1Ev
	jmp	.L204
.L211:
	mov	rbx, rax
.L204:
	mov	rax, QWORD PTR [rbp-24]
	add	rax, 88
	mov	rdi, rax
	call	_ZN5boost18condition_variableD1Ev
	jmp	.L205
.L210:
	mov	rbx, rax
.L205:
	mov	rax, QWORD PTR [rbp-24]
	add	rax, 48
	mov	rdi, rax
	call	_ZN5boost5mutexD1Ev
	jmp	.L206
.L209:
	mov	rbx, rax
.L206:
	mov	rax, QWORD PTR [rbp-24]
	add	rax, 24
	mov	rdi, rax
	call	_ZN5boost10shared_ptrINS_6detail16thread_data_baseEED1Ev
	jmp	.L207
.L208:
	mov	rbx, rax
.L207:
	mov	rax, QWORD PTR [rbp-24]
	add	rax, 8
	mov	rdi, rax
	call	_ZN5boost23enable_shared_from_thisINS_6detail16thread_data_baseEED2Ev
	mov	rax, rbx
	mov	rdi, rax
.LEHB50:
	call	_Unwind_Resume
.LEHE50:
.L216:
.LBE56:
	.loc 16 144 0 is_stmt 1
	add	rsp, 24
	pop	rbx
	pop	rbp
.LCFI224:
	.cfi_def_cfa 7, 8
	ret
	.cfi_endproc
.LFE3553:
	.section	.gcc_except_table
.LLSDA3553:
	.byte	0xff
	.byte	0xff
	.byte	0x1
	.uleb128 .LLSDACSE3553-.LLSDACSB3553
.LLSDACSB3553:
	.uleb128 .LEHB41-.LFB3553
	.uleb128 .LEHE41-.LEHB41
	.uleb128 0
	.uleb128 0
	.uleb128 .LEHB42-.LFB3553
	.uleb128 .LEHE42-.LEHB42
	.uleb128 .L208-.LFB3553
	.uleb128 0
	.uleb128 .LEHB43-.LFB3553
	.uleb128 .LEHE43-.LEHB43
	.uleb128 .L209-.LFB3553
	.uleb128 0
	.uleb128 .LEHB44-.LFB3553
	.uleb128 .LEHE44-.LEHB44
	.uleb128 .L210-.LFB3553
	.uleb128 0
	.uleb128 .LEHB45-.LFB3553
	.uleb128 .LEHE45-.LEHB45
	.uleb128 .L211-.LFB3553
	.uleb128 0
	.uleb128 .LEHB46-.LFB3553
	.uleb128 .LEHE46-.LEHB46
	.uleb128 .L212-.LFB3553
	.uleb128 0
	.uleb128 .LEHB47-.LFB3553
	.uleb128 .LEHE47-.LEHB47
	.uleb128 .L213-.LFB3553
	.uleb128 0
	.uleb128 .LEHB48-.LFB3553
	.uleb128 .LEHE48-.LEHB48
	.uleb128 .L214-.LFB3553
	.uleb128 0
	.uleb128 .LEHB49-.LFB3553
	.uleb128 .LEHE49-.LEHB49
	.uleb128 .L215-.LFB3553
	.uleb128 0
	.uleb128 .LEHB50-.LFB3553
	.uleb128 .LEHE50-.LEHB50
	.uleb128 0
	.uleb128 0
.LLSDACSE3553:
	.section	.text._ZN5boost6detail16thread_data_baseC2Ev,"axG",@progbits,_ZN5boost6detail16thread_data_baseC5Ev,comdat
	.size	_ZN5boost6detail16thread_data_baseC2Ev, .-_ZN5boost6detail16thread_data_baseC2Ev
	.weak	_ZN5boost6detail16thread_data_baseC1Ev
	.set	_ZN5boost6detail16thread_data_baseC1Ev,_ZN5boost6detail16thread_data_baseC2Ev
	.section	.text._ZN5boost6detail16thread_data_base25notify_all_at_thread_exitEPNS_18condition_variableEPNS_5mutexE,"axG",@progbits,_ZN5boost6detail16thread_data_base25notify_all_at_thread_exitEPNS_18condition_variableEPNS_5mutexE,comdat
	.align 2
	.weak	_ZN5boost6detail16thread_data_base25notify_all_at_thread_exitEPNS_18condition_variableEPNS_5mutexE
	.type	_ZN5boost6detail16thread_data_base25notify_all_at_thread_exitEPNS_18condition_variableEPNS_5mutexE, @function
_ZN5boost6detail16thread_data_base25notify_all_at_thread_exitEPNS_18condition_variableEPNS_5mutexE:
.LFB3555:
	.loc 16 150 0
	.cfi_startproc
	.cfi_personality 0x3,__gxx_personality_v0
	.cfi_lsda 0x3,.LLSDA3555
	push	rbp
.LCFI225:
	.cfi_def_cfa_offset 16
	.cfi_offset 6, -16
	mov	rbp, rsp
.LCFI226:
	.cfi_def_cfa_register 6
	sub	rsp, 48
	mov	QWORD PTR [rbp-24], rdi
	mov	QWORD PTR [rbp-32], rsi
	mov	QWORD PTR [rbp-40], rdx
	.loc 16 152 0
	lea	rdx, [rbp-40]
	lea	rcx, [rbp-32]
	lea	rax, [rbp-16]
	mov	rsi, rcx
	mov	rdi, rax
	call	_ZNSt4pairIPN5boost18condition_variableEPNS0_5mutexEEC1ERKS2_RKS4_
	mov	rax, QWORD PTR [rbp-24]
	lea	rdx, [rax+384]
	lea	rax, [rbp-16]
	mov	rsi, rax
	mov	rdi, rdx
.LEHB51:
	call	_ZNSt6vectorISt4pairIPN5boost18condition_variableEPNS1_5mutexEESaIS6_EE9push_backERKS6_
.LEHE51:
	.loc 16 153 0
	jmp	.L220
.L219:
	mov	rdi, rax
.LEHB52:
	call	_Unwind_Resume
.LEHE52:
.L220:
	leave
.LCFI227:
	.cfi_def_cfa 7, 8
	ret
	.cfi_endproc
.LFE3555:
	.section	.gcc_except_table
.LLSDA3555:
	.byte	0xff
	.byte	0xff
	.byte	0x1
	.uleb128 .LLSDACSE3555-.LLSDACSB3555
.LLSDACSB3555:
	.uleb128 .LEHB51-.LFB3555
	.uleb128 .LEHE51-.LEHB51
	.uleb128 .L219-.LFB3555
	.uleb128 0
	.uleb128 .LEHB52-.LFB3555
	.uleb128 .LEHE52-.LEHB52
	.uleb128 0
	.uleb128 0
.LLSDACSE3555:
	.section	.text._ZN5boost6detail16thread_data_base25notify_all_at_thread_exitEPNS_18condition_variableEPNS_5mutexE,"axG",@progbits,_ZN5boost6detail16thread_data_base25notify_all_at_thread_exitEPNS_18condition_variableEPNS_5mutexE,comdat
	.size	_ZN5boost6detail16thread_data_base25notify_all_at_thread_exitEPNS_18condition_variableEPNS_5mutexE, .-_ZN5boost6detail16thread_data_base25notify_all_at_thread_exitEPNS_18condition_variableEPNS_5mutexE
	.section	.text._ZN5boost6detail20interruption_checker22check_for_interruptionEv,"axG",@progbits,_ZN5boost6detail20interruption_checker22check_for_interruptionEv,comdat
	.align 2
	.weak	_ZN5boost6detail20interruption_checker22check_for_interruptionEv
	.type	_ZN5boost6detail20interruption_checker22check_for_interruptionEv, @function
_ZN5boost6detail20interruption_checker22check_for_interruptionEv:
.LFB3557:
	.loc 16 171 0
	.cfi_startproc
	push	rbp
.LCFI228:
	.cfi_def_cfa_offset 16
	.cfi_offset 6, -16
	mov	rbp, rsp
.LCFI229:
	.cfi_def_cfa_register 6
	sub	rsp, 16
	mov	QWORD PTR [rbp-8], rdi
	.loc 16 174 0
	mov	rax, QWORD PTR [rbp-8]
	mov	rax, QWORD PTR [rax]
	movzx	eax, BYTE PTR [rax+433]
	test	al, al
	je	.L221
	.loc 16 176 0
	mov	rax, QWORD PTR [rbp-8]
	mov	rax, QWORD PTR [rax]
	mov	BYTE PTR [rax+433], 0
	.loc 16 177 0
	mov	edi, 1
	call	__cxa_allocate_exception
	mov	edx, 0
	mov	esi, OFFSET FLAT:_ZTIN5boost18thread_interruptedE
	mov	rdi, rax
	call	__cxa_throw
.L221:
	.loc 16 180 0
	leave
.LCFI230:
	.cfi_def_cfa 7, 8
	ret
	.cfi_endproc
.LFE3557:
	.size	_ZN5boost6detail20interruption_checker22check_for_interruptionEv, .-_ZN5boost6detail20interruption_checker22check_for_interruptionEv
	.section	.rodata
	.align 8
.LC13:
	.string	"/usr/local/include/boost/thread/pthread/thread_data.hpp"
	.section	.text._ZN5boost6detail20interruption_checkerC2EP15pthread_mutex_tP14pthread_cond_t,"axG",@progbits,_ZN5boost6detail20interruption_checkerC5EP15pthread_mutex_tP14pthread_cond_t,comdat
	.align 2
	.weak	_ZN5boost6detail20interruption_checkerC2EP15pthread_mutex_tP14pthread_cond_t
	.type	_ZN5boost6detail20interruption_checkerC2EP15pthread_mutex_tP14pthread_cond_t, @function
_ZN5boost6detail20interruption_checkerC2EP15pthread_mutex_tP14pthread_cond_t:
.LFB3559:
	.loc 16 184 0
	.cfi_startproc
	.cfi_personality 0x3,__gxx_personality_v0
	.cfi_lsda 0x3,.LLSDA3559
	push	rbp
.LCFI231:
	.cfi_def_cfa_offset 16
	.cfi_offset 6, -16
	mov	rbp, rsp
.LCFI232:
	.cfi_def_cfa_register 6
	push	rbx
	sub	rsp, 56
	.cfi_offset 3, -24
	mov	QWORD PTR [rbp-40], rdi
	mov	QWORD PTR [rbp-48], rsi
	mov	QWORD PTR [rbp-56], rdx
.LEHB53:
.LBB57:
	.loc 16 185 0
	call	_ZN5boost6detail23get_current_thread_dataEv
.LEHE53:
	mov	rdx, rax
	.loc 16 186 0
	mov	rax, QWORD PTR [rbp-40]
	mov	QWORD PTR [rax], rdx
	mov	rax, QWORD PTR [rbp-40]
	mov	rdx, QWORD PTR [rbp-48]
	mov	QWORD PTR [rax+8], rdx
	mov	rax, QWORD PTR [rbp-40]
	mov	rax, QWORD PTR [rax]
	test	rax, rax
	je	.L224
	.loc 16 186 0 is_stmt 0 discriminator 1
	mov	rax, QWORD PTR [rbp-40]
	mov	rax, QWORD PTR [rax]
	movzx	eax, BYTE PTR [rax+432]
	test	al, al
	je	.L224
	.loc 16 186 0 discriminator 3
	mov	eax, 1
	jmp	.L225
.L224:
	.loc 16 186 0 discriminator 2
	mov	eax, 0
.L225:
	.loc 16 186 0 discriminator 4
	mov	rdx, QWORD PTR [rbp-40]
	mov	BYTE PTR [rdx+16], al
.LBB58:
.LBB59:
	.loc 16 188 0 is_stmt 1 discriminator 4
	mov	rax, QWORD PTR [rbp-40]
	movzx	eax, BYTE PTR [rax+16]
	test	al, al
	je	.L226
.LBB60:
	.loc 16 190 0
	mov	rax, QWORD PTR [rbp-40]
	mov	rax, QWORD PTR [rax]
	lea	rdx, [rax+48]
	lea	rax, [rbp-32]
	mov	rsi, rdx
	mov	rdi, rax
.LEHB54:
	call	_ZN5boost10lock_guardINS_5mutexEEC1ERS1_
.LEHE54:
	.loc 16 191 0
	mov	rax, QWORD PTR [rbp-40]
	mov	rdi, rax
.LEHB55:
	call	_ZN5boost6detail20interruption_checker22check_for_interruptionEv
.LEHE55:
	.loc 16 192 0
	mov	rax, QWORD PTR [rbp-40]
	mov	rax, QWORD PTR [rax]
	mov	rdx, QWORD PTR [rbp-48]
	mov	QWORD PTR [rax+368], rdx
	.loc 16 193 0
	mov	rax, QWORD PTR [rbp-40]
	mov	rax, QWORD PTR [rax]
	mov	rdx, QWORD PTR [rbp-56]
	mov	QWORD PTR [rax+376], rdx
	.loc 16 194 0
	mov	rax, QWORD PTR [rbp-40]
	mov	rax, QWORD PTR [rax+8]
	mov	rdi, rax
	call	pthread_mutex_lock
	test	eax, eax
	je	.L227
	.loc 16 194 0 is_stmt 0 discriminator 1
	mov	ecx, OFFSET FLAT:_ZZN5boost6detail20interruption_checkerC1EP15pthread_mutex_tP14pthread_cond_tE19__PRETTY_FUNCTION__
	mov	edx, 194
	mov	esi, OFFSET FLAT:.LC13
	mov	edi, OFFSET FLAT:.LC3
	call	__assert_fail
.L227:
	.loc 16 194 0 discriminator 2
	lea	rax, [rbp-32]
	mov	rdi, rax
.LEHB56:
	call	_ZN5boost10lock_guardINS_5mutexEED1Ev
.LEHE56:
.LBE60:
.LBE59:
.LBE58:
.LBE57:
	.loc 16 200 0 is_stmt 1
	jmp	.L233
.L226:
.LBB64:
.LBB63:
.LBB62:
	.loc 16 198 0
	mov	rax, QWORD PTR [rbp-40]
	mov	rax, QWORD PTR [rax+8]
	mov	rdi, rax
	call	pthread_mutex_lock
	test	eax, eax
	je	.L233
	.loc 16 198 0 is_stmt 0 discriminator 1
	mov	ecx, OFFSET FLAT:_ZZN5boost6detail20interruption_checkerC1EP15pthread_mutex_tP14pthread_cond_tE19__PRETTY_FUNCTION__
	mov	edx, 198
	mov	esi, OFFSET FLAT:.LC13
	mov	edi, OFFSET FLAT:.LC3
	call	__assert_fail
.L232:
	mov	rbx, rax
.LBB61:
	.loc 16 194 0 is_stmt 1
	lea	rax, [rbp-32]
	mov	rdi, rax
	call	_ZN5boost10lock_guardINS_5mutexEED1Ev
	mov	rax, rbx
	jmp	.L230
.L231:
.L230:
	mov	rdi, rax
.LEHB57:
	call	_Unwind_Resume
.LEHE57:
.L233:
.LBE61:
.LBE62:
.LBE63:
.LBE64:
	.loc 16 200 0
	nop
.L223:
	add	rsp, 56
	pop	rbx
	pop	rbp
.LCFI233:
	.cfi_def_cfa 7, 8
	ret
	.cfi_endproc
.LFE3559:
	.section	.gcc_except_table
.LLSDA3559:
	.byte	0xff
	.byte	0xff
	.byte	0x1
	.uleb128 .LLSDACSE3559-.LLSDACSB3559
.LLSDACSB3559:
	.uleb128 .LEHB53-.LFB3559
	.uleb128 .LEHE53-.LEHB53
	.uleb128 0
	.uleb128 0
	.uleb128 .LEHB54-.LFB3559
	.uleb128 .LEHE54-.LEHB54
	.uleb128 .L231-.LFB3559
	.uleb128 0
	.uleb128 .LEHB55-.LFB3559
	.uleb128 .LEHE55-.LEHB55
	.uleb128 .L232-.LFB3559
	.uleb128 0
	.uleb128 .LEHB56-.LFB3559
	.uleb128 .LEHE56-.LEHB56
	.uleb128 .L231-.LFB3559
	.uleb128 0
	.uleb128 .LEHB57-.LFB3559
	.uleb128 .LEHE57-.LEHB57
	.uleb128 0
	.uleb128 0
.LLSDACSE3559:
	.section	.text._ZN5boost6detail20interruption_checkerC2EP15pthread_mutex_tP14pthread_cond_t,"axG",@progbits,_ZN5boost6detail20interruption_checkerC5EP15pthread_mutex_tP14pthread_cond_t,comdat
	.size	_ZN5boost6detail20interruption_checkerC2EP15pthread_mutex_tP14pthread_cond_t, .-_ZN5boost6detail20interruption_checkerC2EP15pthread_mutex_tP14pthread_cond_t
	.weak	_ZN5boost6detail20interruption_checkerC1EP15pthread_mutex_tP14pthread_cond_t
	.set	_ZN5boost6detail20interruption_checkerC1EP15pthread_mutex_tP14pthread_cond_t,_ZN5boost6detail20interruption_checkerC2EP15pthread_mutex_tP14pthread_cond_t
	.section	.text._ZN5boost6detail20interruption_checkerD2Ev,"axG",@progbits,_ZN5boost6detail20interruption_checkerD5Ev,comdat
	.align 2
	.weak	_ZN5boost6detail20interruption_checkerD2Ev
	.type	_ZN5boost6detail20interruption_checkerD2Ev, @function
_ZN5boost6detail20interruption_checkerD2Ev:
.LFB3562:
	.loc 16 201 0
	.cfi_startproc
	.cfi_personality 0x3,__gxx_personality_v0
	.cfi_lsda 0x3,.LLSDA3562
	push	rbp
.LCFI234:
	.cfi_def_cfa_offset 16
	.cfi_offset 6, -16
	mov	rbp, rsp
.LCFI235:
	.cfi_def_cfa_register 6
	sub	rsp, 32
	mov	QWORD PTR [rbp-24], rdi
.LBB65:
.LBB66:
.LBB67:
	.loc 16 203 0
	mov	rax, QWORD PTR [rbp-24]
	movzx	eax, BYTE PTR [rax+16]
	test	al, al
	je	.L235
.LBB68:
	.loc 16 205 0
	mov	rax, QWORD PTR [rbp-24]
	mov	rax, QWORD PTR [rax+8]
	mov	rdi, rax
	call	pthread_mutex_unlock
	test	eax, eax
	je	.L236
	.loc 16 205 0 is_stmt 0 discriminator 1
	mov	ecx, OFFSET FLAT:_ZZN5boost6detail20interruption_checkerD1EvE19__PRETTY_FUNCTION__
	mov	edx, 205
	mov	esi, OFFSET FLAT:.LC13
	mov	edi, OFFSET FLAT:.LC4
	call	__assert_fail
.L236:
	.loc 16 206 0 is_stmt 1
	mov	rax, QWORD PTR [rbp-24]
	mov	rax, QWORD PTR [rax]
	lea	rdx, [rax+48]
	lea	rax, [rbp-16]
	mov	rsi, rdx
	mov	rdi, rax
.LEHB58:
	call	_ZN5boost10lock_guardINS_5mutexEEC1ERS1_
	.loc 16 207 0
	mov	rax, QWORD PTR [rbp-24]
	mov	rax, QWORD PTR [rax]
	mov	QWORD PTR [rax+368], 0
	.loc 16 208 0
	mov	rax, QWORD PTR [rbp-24]
	mov	rax, QWORD PTR [rax]
	mov	QWORD PTR [rax+376], 0
	lea	rax, [rbp-16]
	mov	rdi, rax
	call	_ZN5boost10lock_guardINS_5mutexEED1Ev
.LEHE58:
.LBE68:
.LBE67:
.LBE66:
.LBE65:
	.loc 16 214 0
	jmp	.L240
.L235:
.LBB71:
.LBB70:
.LBB69:
	.loc 16 212 0
	mov	rax, QWORD PTR [rbp-24]
	mov	rax, QWORD PTR [rax+8]
	mov	rdi, rax
	call	pthread_mutex_unlock
	test	eax, eax
	je	.L240
	.loc 16 212 0 is_stmt 0 discriminator 1
	mov	ecx, OFFSET FLAT:_ZZN5boost6detail20interruption_checkerD1EvE19__PRETTY_FUNCTION__
	mov	edx, 212
	mov	esi, OFFSET FLAT:.LC13
	mov	edi, OFFSET FLAT:.LC4
	call	__assert_fail
.L239:
	mov	rdi, rax
.LEHB59:
	call	_Unwind_Resume
.LEHE59:
.L240:
.LBE69:
.LBE70:
.LBE71:
	.loc 16 214 0 is_stmt 1
	nop
.L234:
	leave
.LCFI236:
	.cfi_def_cfa 7, 8
	ret
	.cfi_endproc
.LFE3562:
	.section	.gcc_except_table
.LLSDA3562:
	.byte	0xff
	.byte	0xff
	.byte	0x1
	.uleb128 .LLSDACSE3562-.LLSDACSB3562
.LLSDACSB3562:
	.uleb128 .LEHB58-.LFB3562
	.uleb128 .LEHE58-.LEHB58
	.uleb128 .L239-.LFB3562
	.uleb128 0
	.uleb128 .LEHB59-.LFB3562
	.uleb128 .LEHE59-.LEHB59
	.uleb128 0
	.uleb128 0
.LLSDACSE3562:
	.section	.text._ZN5boost6detail20interruption_checkerD2Ev,"axG",@progbits,_ZN5boost6detail20interruption_checkerD5Ev,comdat
	.size	_ZN5boost6detail20interruption_checkerD2Ev, .-_ZN5boost6detail20interruption_checkerD2Ev
	.weak	_ZN5boost6detail20interruption_checkerD1Ev
	.set	_ZN5boost6detail20interruption_checkerD1Ev,_ZN5boost6detail20interruption_checkerD2Ev
	.local	_ZN12_GLOBAL__N_12_1E
	.comm	_ZN12_GLOBAL__N_12_1E,1,1
	.local	_ZN12_GLOBAL__N_12_2E
	.comm	_ZN12_GLOBAL__N_12_2E,1,1
	.local	_ZN12_GLOBAL__N_12_3E
	.comm	_ZN12_GLOBAL__N_12_3E,1,1
	.local	_ZN12_GLOBAL__N_12_4E
	.comm	_ZN12_GLOBAL__N_12_4E,1,1
	.local	_ZN12_GLOBAL__N_12_5E
	.comm	_ZN12_GLOBAL__N_12_5E,1,1
	.local	_ZN12_GLOBAL__N_12_6E
	.comm	_ZN12_GLOBAL__N_12_6E,1,1
	.local	_ZN12_GLOBAL__N_12_7E
	.comm	_ZN12_GLOBAL__N_12_7E,1,1
	.local	_ZN12_GLOBAL__N_12_8E
	.comm	_ZN12_GLOBAL__N_12_8E,1,1
	.local	_ZN12_GLOBAL__N_12_9E
	.comm	_ZN12_GLOBAL__N_12_9E,1,1
	.section	.text._ZN5boost6thread12start_threadEv,"axG",@progbits,_ZN5boost6thread12start_threadEv,comdat
	.align 2
	.weak	_ZN5boost6thread12start_threadEv
	.type	_ZN5boost6thread12start_threadEv, @function
_ZN5boost6thread12start_threadEv:
.LFB5174:
	.file 17 "/usr/local/include/boost/thread/detail/thread.hpp"
	.loc 17 178 0
	.cfi_startproc
	.cfi_personality 0x3,__gxx_personality_v0
	.cfi_lsda 0x3,.LLSDA5174
	push	rbp
.LCFI237:
	.cfi_def_cfa_offset 16
	.cfi_offset 6, -16
	mov	rbp, rsp
.LCFI238:
	.cfi_def_cfa_register 6
	push	rbx
	sub	rsp, 72
	.cfi_offset 3, -24
	mov	QWORD PTR [rbp-72], rdi
	.loc 17 180 0
	mov	rax, QWORD PTR [rbp-72]
	mov	rdi, rax
.LEHB60:
	call	_ZN5boost6thread21start_thread_noexceptEv
	xor	eax, 1
	test	al, al
	je	.L245
	.loc 17 182 0
	lea	rax, [rbp-64]
	mov	rdi, rax
	call	_ZN5boost21thread_resource_errorC1Ev
.LEHE60:
	lea	rax, [rbp-64]
	mov	rdi, rax
.LEHB61:
	call	_ZN5boost15throw_exceptionINS_21thread_resource_errorEEEvRKT_
.LEHE61:
.L244:
	mov	rbx, rax
	lea	rax, [rbp-64]
	mov	rdi, rax
	call	_ZN5boost21thread_resource_errorD1Ev
	mov	rax, rbx
	mov	rdi, rax
.LEHB62:
	call	_Unwind_Resume
.LEHE62:
.L245:
	.loc 17 184 0
	nop
.L241:
	add	rsp, 72
	pop	rbx
	pop	rbp
.LCFI239:
	.cfi_def_cfa 7, 8
	ret
	.cfi_endproc
.LFE5174:
	.section	.gcc_except_table
.LLSDA5174:
	.byte	0xff
	.byte	0xff
	.byte	0x1
	.uleb128 .LLSDACSE5174-.LLSDACSB5174
.LLSDACSB5174:
	.uleb128 .LEHB60-.LFB5174
	.uleb128 .LEHE60-.LEHB60
	.uleb128 0
	.uleb128 0
	.uleb128 .LEHB61-.LFB5174
	.uleb128 .LEHE61-.LEHB61
	.uleb128 .L244-.LFB5174
	.uleb128 0
	.uleb128 .LEHB62-.LFB5174
	.uleb128 .LEHE62-.LEHB62
	.uleb128 0
	.uleb128 0
.LLSDACSE5174:
	.section	.text._ZN5boost6thread12start_threadEv,"axG",@progbits,_ZN5boost6thread12start_threadEv,comdat
	.size	_ZN5boost6thread12start_threadEv, .-_ZN5boost6thread12start_threadEv
	.section	.text._ZN5boost6threadD2Ev,"axG",@progbits,_ZN5boost6threadD5Ev,comdat
	.align 2
	.weak	_ZN5boost6threadD2Ev
	.type	_ZN5boost6threadD2Ev, @function
_ZN5boost6threadD2Ev:
.LFB5179:
	.loc 17 247 0
	.cfi_startproc
	.cfi_personality 0x3,__gxx_personality_v0
	.cfi_lsda 0x3,.LLSDA5179
	push	rbp
.LCFI240:
	.cfi_def_cfa_offset 16
	.cfi_offset 6, -16
	mov	rbp, rsp
.LCFI241:
	.cfi_def_cfa_register 6
	push	rbx
	sub	rsp, 24
	.cfi_offset 3, -24
	mov	QWORD PTR [rbp-24], rdi
.LBB72:
	.loc 17 255 0
	mov	rax, QWORD PTR [rbp-24]
	mov	rdi, rax
.LEHB63:
	call	_ZN5boost6thread6detachEv
.LEHE63:
	.loc 17 248 0
	mov	rax, QWORD PTR [rbp-24]
	mov	rdi, rax
.LEHB64:
	call	_ZN5boost10shared_ptrINS_6detail16thread_data_baseEED1Ev
.LEHE64:
	jmp	.L250
.L249:
	mov	rbx, rax
	mov	rax, QWORD PTR [rbp-24]
	mov	rdi, rax
	call	_ZN5boost10shared_ptrINS_6detail16thread_data_baseEED1Ev
	mov	rax, rbx
	mov	rdi, rax
.LEHB65:
	call	_Unwind_Resume
.LEHE65:
.L250:
.LBE72:
	.loc 17 257 0
	add	rsp, 24
	pop	rbx
	pop	rbp
.LCFI242:
	.cfi_def_cfa 7, 8
	ret
	.cfi_endproc
.LFE5179:
	.section	.gcc_except_table
.LLSDA5179:
	.byte	0xff
	.byte	0xff
	.byte	0x1
	.uleb128 .LLSDACSE5179-.LLSDACSB5179
.LLSDACSB5179:
	.uleb128 .LEHB63-.LFB5179
	.uleb128 .LEHE63-.LEHB63
	.uleb128 .L249-.LFB5179
	.uleb128 0
	.uleb128 .LEHB64-.LFB5179
	.uleb128 .LEHE64-.LEHB64
	.uleb128 0
	.uleb128 0
	.uleb128 .LEHB65-.LFB5179
	.uleb128 .LEHE65-.LEHB65
	.uleb128 0
	.uleb128 0
.LLSDACSE5179:
	.section	.text._ZN5boost6threadD2Ev,"axG",@progbits,_ZN5boost6threadD5Ev,comdat
	.size	_ZN5boost6threadD2Ev, .-_ZN5boost6threadD2Ev
	.weak	_ZN5boost6threadD1Ev
	.set	_ZN5boost6threadD1Ev,_ZN5boost6threadD2Ev
	.section	.text._ZN5boost6thread2idC2Em,"axG",@progbits,_ZN5boost6thread2idC5Em,comdat
	.align 2
	.weak	_ZN5boost6thread2idC2Em
	.type	_ZN5boost6thread2idC2Em, @function
_ZN5boost6thread2idC2Em:
.LFB5211:
	.loc 17 635 0
	.cfi_startproc
	push	rbp
.LCFI243:
	.cfi_def_cfa_offset 16
	.cfi_offset 6, -16
	mov	rbp, rsp
.LCFI244:
	.cfi_def_cfa_register 6
	mov	QWORD PTR [rbp-8], rdi
	mov	QWORD PTR [rbp-16], rsi
.LBB73:
	.loc 17 636 0
	mov	rax, QWORD PTR [rbp-8]
	mov	rdx, QWORD PTR [rbp-16]
	mov	QWORD PTR [rax], rdx
.LBE73:
	.loc 17 637 0
	pop	rbp
.LCFI245:
	.cfi_def_cfa 7, 8
	ret
	.cfi_endproc
.LFE5211:
	.size	_ZN5boost6thread2idC2Em, .-_ZN5boost6thread2idC2Em
	.weak	_ZN5boost6thread2idC1Em
	.set	_ZN5boost6thread2idC1Em,_ZN5boost6thread2idC2Em
	.section	.text._ZNK5boost6thread2ideqERKS1_,"axG",@progbits,_ZNK5boost6thread2ideqERKS1_,comdat
	.align 2
	.weak	_ZNK5boost6thread2ideqERKS1_
	.type	_ZNK5boost6thread2ideqERKS1_, @function
_ZNK5boost6thread2ideqERKS1_:
.LFB5219:
	.loc 17 653 0
	.cfi_startproc
	push	rbp
.LCFI246:
	.cfi_def_cfa_offset 16
	.cfi_offset 6, -16
	mov	rbp, rsp
.LCFI247:
	.cfi_def_cfa_register 6
	mov	QWORD PTR [rbp-8], rdi
	mov	QWORD PTR [rbp-16], rsi
	.loc 17 655 0
	mov	rax, QWORD PTR [rbp-8]
	mov	rdx, QWORD PTR [rax]
	mov	rax, QWORD PTR [rbp-16]
	mov	rax, QWORD PTR [rax]
	cmp	rdx, rax
	sete	al
	.loc 17 656 0
	pop	rbp
.LCFI248:
	.cfi_def_cfa 7, 8
	ret
	.cfi_endproc
.LFE5219:
	.size	_ZNK5boost6thread2ideqERKS1_, .-_ZNK5boost6thread2ideqERKS1_
	.section	.text._ZNK5boost6thread6get_idEv,"axG",@progbits,_ZNK5boost6thread6get_idEv,comdat
	.align 2
	.weak	_ZNK5boost6thread6get_idEv
	.type	_ZNK5boost6thread6get_idEv, @function
_ZNK5boost6thread6get_idEv:
.LFB5226:
	.loc 17 723 0
	.cfi_startproc
	push	rbp
.LCFI249:
	.cfi_def_cfa_offset 16
	.cfi_offset 6, -16
	mov	rbp, rsp
.LCFI250:
	.cfi_def_cfa_register 6
	sub	rsp, 16
	mov	QWORD PTR [rbp-8], rdi
	mov	QWORD PTR [rbp-16], rsi
	.loc 17 725 0
	mov	rax, QWORD PTR [rbp-16]
	mov	rdi, rax
	call	_ZN5boost6thread13native_handleEv
	mov	rdx, rax
	mov	rax, QWORD PTR [rbp-8]
	mov	rsi, rdx
	mov	rdi, rax
	call	_ZN5boost6thread2idC1Em
	.loc 17 730 0
	mov	rax, QWORD PTR [rbp-8]
	leave
.LCFI251:
	.cfi_def_cfa 7, 8
	ret
	.cfi_endproc
.LFE5226:
	.size	_ZNK5boost6thread6get_idEv, .-_ZNK5boost6thread6get_idEv
	.section	.text._ZN5boost11this_thread6get_idEv,"axG",@progbits,_ZN5boost11this_thread6get_idEv,comdat
	.weak	_ZN5boost11this_thread6get_idEv
	.type	_ZN5boost11this_thread6get_idEv, @function
_ZN5boost11this_thread6get_idEv:
.LFB5227:
	.loc 17 735 0
	.cfi_startproc
	push	rbp
.LCFI252:
	.cfi_def_cfa_offset 16
	.cfi_offset 6, -16
	mov	rbp, rsp
.LCFI253:
	.cfi_def_cfa_register 6
	sub	rsp, 16
	mov	QWORD PTR [rbp-8], rdi
	.loc 17 737 0
	call	pthread_self
	mov	rdx, rax
	mov	rax, QWORD PTR [rbp-8]
	mov	rsi, rdx
	mov	rdi, rax
	call	_ZN5boost6thread2idC1Em
	.loc 17 742 0
	mov	rax, QWORD PTR [rbp-8]
	leave
.LCFI254:
	.cfi_def_cfa 7, 8
	ret
	.cfi_endproc
.LFE5227:
	.size	_ZN5boost11this_thread6get_idEv, .-_ZN5boost11this_thread6get_idEv
	.section	.rodata
	.align 8
.LC14:
	.string	"boost thread: trying joining itself"
	.section	.text._ZN5boost6thread4joinEv,"axG",@progbits,_ZN5boost6thread4joinEv,comdat
	.align 2
	.weak	_ZN5boost6thread4joinEv
	.type	_ZN5boost6thread4joinEv, @function
_ZN5boost6thread4joinEv:
.LFB5228:
	.loc 17 745 0
	.cfi_startproc
	.cfi_personality 0x3,__gxx_personality_v0
	.cfi_lsda 0x3,.LLSDA5228
	push	rbp
.LCFI255:
	.cfi_def_cfa_offset 16
	.cfi_offset 6, -16
	mov	rbp, rsp
.LCFI256:
	.cfi_def_cfa_register 6
	push	rbx
	sub	rsp, 104
	.cfi_offset 3, -24
	mov	QWORD PTR [rbp-104], rdi
	.loc 17 746 0
	lea	rax, [rbp-96]
	mov	rdx, QWORD PTR [rbp-104]
	mov	rsi, rdx
	mov	rdi, rax
.LEHB66:
	call	_ZNK5boost6thread6get_idEv
	lea	rax, [rbp-80]
	mov	rdi, rax
	call	_ZN5boost11this_thread6get_idEv
	lea	rdx, [rbp-96]
	lea	rax, [rbp-80]
	mov	rsi, rdx
	mov	rdi, rax
	call	_ZNK5boost6thread2ideqERKS1_
	test	al, al
	je	.L259
	.loc 17 747 0
	lea	rax, [rbp-64]
	mov	edx, OFFSET FLAT:.LC14
	mov	esi, 35
	mov	rdi, rax
	call	_ZN5boost21thread_resource_errorC1EiPKc
.LEHE66:
	lea	rax, [rbp-64]
	mov	rdi, rax
.LEHB67:
	call	_ZN5boost15throw_exceptionINS_21thread_resource_errorEEEvRKT_
.LEHE67:
.L259:
	.loc 17 751 0
	mov	rax, QWORD PTR [rbp-104]
	mov	rdi, rax
.LEHB68:
	call	_ZN5boost6thread13join_noexceptEv
	jmp	.L262
.L261:
	mov	rbx, rax
	.loc 17 747 0
	lea	rax, [rbp-64]
	mov	rdi, rax
	call	_ZN5boost21thread_resource_errorD1Ev
	mov	rax, rbx
	mov	rdi, rax
	call	_Unwind_Resume
.LEHE68:
.L262:
	.loc 17 752 0
	add	rsp, 104
	pop	rbx
	pop	rbp
.LCFI257:
	.cfi_def_cfa 7, 8
	ret
	.cfi_endproc
.LFE5228:
	.section	.gcc_except_table
.LLSDA5228:
	.byte	0xff
	.byte	0xff
	.byte	0x1
	.uleb128 .LLSDACSE5228-.LLSDACSB5228
.LLSDACSB5228:
	.uleb128 .LEHB66-.LFB5228
	.uleb128 .LEHE66-.LEHB66
	.uleb128 0
	.uleb128 0
	.uleb128 .LEHB67-.LFB5228
	.uleb128 .LEHE67-.LEHB67
	.uleb128 .L261-.LFB5228
	.uleb128 0
	.uleb128 .LEHB68-.LFB5228
	.uleb128 .LEHE68-.LEHB68
	.uleb128 0
	.uleb128 0
.LLSDACSE5228:
	.section	.text._ZN5boost6thread4joinEv,"axG",@progbits,_ZN5boost6thread4joinEv,comdat
	.size	_ZN5boost6thread4joinEv, .-_ZN5boost6thread4joinEv
	.section	.rodata
	.align 8
.LC15:
	.string	"boost::condition_variable::wait failed in pthread_cond_wait"
	.section	.text._ZN5boost18condition_variable4waitERNS_11unique_lockINS_5mutexEEE,"axG",@progbits,_ZN5boost18condition_variable4waitERNS_11unique_lockINS_5mutexEEE,comdat
	.align 2
	.weak	_ZN5boost18condition_variable4waitERNS_11unique_lockINS_5mutexEEE
	.type	_ZN5boost18condition_variable4waitERNS_11unique_lockINS_5mutexEEE, @function
_ZN5boost18condition_variable4waitERNS_11unique_lockINS_5mutexEEE:
.LFB5242:
	.file 18 "/usr/local/include/boost/thread/pthread/condition_variable.hpp"
	.loc 18 59 0
	.cfi_startproc
	.cfi_personality 0x3,__gxx_personality_v0
	.cfi_lsda 0x3,.LLSDA5242
	push	rbp
.LCFI258:
	.cfi_def_cfa_offset 16
	.cfi_offset 6, -16
	mov	rbp, rsp
.LCFI259:
	.cfi_def_cfa_register 6
	push	rbx
	sub	rsp, 120
	.cfi_offset 3, -24
	mov	QWORD PTR [rbp-120], rdi
	mov	QWORD PTR [rbp-128], rsi
.LBB74:
	.loc 18 66 0
	mov	DWORD PTR [rbp-20], 0
.LBB75:
	.loc 18 69 0
	lea	rax, [rbp-80]
	mov	rdi, rax
	call	_ZN5boost16thread_cv_detail12lock_on_exitINS_11unique_lockINS_5mutexEEEEC1Ev
	.loc 18 70 0
	mov	rax, QWORD PTR [rbp-120]
	lea	rdx, [rax+40]
	mov	rcx, QWORD PTR [rbp-120]
	lea	rax, [rbp-112]
	mov	rsi, rcx
	mov	rdi, rax
.LEHB69:
	call	_ZN5boost6detail20interruption_checkerC1EP15pthread_mutex_tP14pthread_cond_t
.LEHE69:
	.loc 18 71 0
	mov	rdx, QWORD PTR [rbp-128]
	lea	rax, [rbp-80]
	mov	rsi, rdx
	mov	rdi, rax
.LEHB70:
	call	_ZN5boost16thread_cv_detail12lock_on_exitINS_11unique_lockINS_5mutexEEEE8activateERS4_
.L264:
	.loc 18 73 0
	mov	rax, QWORD PTR [rbp-120]
	mov	rdx, QWORD PTR [rbp-120]
	add	rdx, 40
	mov	rsi, rax
	mov	rdi, rdx
	call	pthread_cond_wait
.LEHE70:
	mov	DWORD PTR [rbp-20], eax
	.loc 18 72 0
	cmp	DWORD PTR [rbp-20], 4
	sete	al
	test	al, al
	jne	.L264
	.loc 18 74 0
	lea	rax, [rbp-112]
	mov	rdi, rax
.LEHB71:
	call	_ZN5boost6detail20interruption_checkerD1Ev
.LEHE71:
	.loc 18 74 0 is_stmt 0 discriminator 1
	lea	rax, [rbp-80]
	mov	rdi, rax
.LEHB72:
	call	_ZN5boost16thread_cv_detail12lock_on_exitINS_11unique_lockINS_5mutexEEEED1Ev
.LEHE72:
.LEHB73:
.LBE75:
	.loc 18 84 0 is_stmt 1
	call	_ZN5boost11this_thread18interruption_pointEv
	.loc 18 86 0
	cmp	DWORD PTR [rbp-20], 0
	je	.L274
	.loc 18 88 0
	mov	ecx, DWORD PTR [rbp-20]
	lea	rax, [rbp-64]
	mov	edx, OFFSET FLAT:.LC15
	mov	esi, ecx
	mov	rdi, rax
	call	_ZN5boost15condition_errorC1EiPKc
.LEHE73:
	lea	rax, [rbp-64]
	mov	rdi, rax
.LEHB74:
	call	_ZN5boost15throw_exceptionINS_15condition_errorEEEvRKT_
.LEHE74:
.L271:
	mov	rbx, rax
.LBB76:
	.loc 18 74 0
	lea	rax, [rbp-112]
	mov	rdi, rax
	call	_ZN5boost6detail20interruption_checkerD1Ev
	jmp	.L267
.L270:
	mov	rbx, rax
.L267:
	lea	rax, [rbp-80]
	mov	rdi, rax
	call	_ZN5boost16thread_cv_detail12lock_on_exitINS_11unique_lockINS_5mutexEEEED1Ev
	mov	rax, rbx
	jmp	.L268
.L272:
.L268:
	mov	rdi, rax
.LEHB75:
	call	_Unwind_Resume
.L273:
	mov	rbx, rax
.LBE76:
	.loc 18 88 0
	lea	rax, [rbp-64]
	mov	rdi, rax
	call	_ZN5boost15condition_errorD1Ev
	mov	rax, rbx
	mov	rdi, rax
	call	_Unwind_Resume
.LEHE75:
.L274:
.LBE74:
	.loc 18 90 0
	nop
.L263:
	add	rsp, 120
	pop	rbx
	pop	rbp
.LCFI260:
	.cfi_def_cfa 7, 8
	ret
	.cfi_endproc
.LFE5242:
	.section	.gcc_except_table
.LLSDA5242:
	.byte	0xff
	.byte	0xff
	.byte	0x1
	.uleb128 .LLSDACSE5242-.LLSDACSB5242
.LLSDACSB5242:
	.uleb128 .LEHB69-.LFB5242
	.uleb128 .LEHE69-.LEHB69
	.uleb128 .L270-.LFB5242
	.uleb128 0
	.uleb128 .LEHB70-.LFB5242
	.uleb128 .LEHE70-.LEHB70
	.uleb128 .L271-.LFB5242
	.uleb128 0
	.uleb128 .LEHB71-.LFB5242
	.uleb128 .LEHE71-.LEHB71
	.uleb128 .L270-.LFB5242
	.uleb128 0
	.uleb128 .LEHB72-.LFB5242
	.uleb128 .LEHE72-.LEHB72
	.uleb128 .L272-.LFB5242
	.uleb128 0
	.uleb128 .LEHB73-.LFB5242
	.uleb128 .LEHE73-.LEHB73
	.uleb128 0
	.uleb128 0
	.uleb128 .LEHB74-.LFB5242
	.uleb128 .LEHE74-.LEHB74
	.uleb128 .L273-.LFB5242
	.uleb128 0
	.uleb128 .LEHB75-.LFB5242
	.uleb128 .LEHE75-.LEHB75
	.uleb128 0
	.uleb128 0
.LLSDACSE5242:
	.section	.text._ZN5boost18condition_variable4waitERNS_11unique_lockINS_5mutexEEE,"axG",@progbits,_ZN5boost18condition_variable4waitERNS_11unique_lockINS_5mutexEEE,comdat
	.size	_ZN5boost18condition_variable4waitERNS_11unique_lockINS_5mutexEEE, .-_ZN5boost18condition_variable4waitERNS_11unique_lockINS_5mutexEEE
	.section	.rodata
	.align 8
.LC16:
	.string	"/usr/local/include/boost/thread/pthread/condition_variable.hpp"
.LC17:
	.string	"!pthread_cond_signal(&cond)"
	.section	.text._ZN5boost18condition_variable10notify_oneEv,"axG",@progbits,_ZN5boost18condition_variable10notify_oneEv,comdat
	.align 2
	.weak	_ZN5boost18condition_variable10notify_oneEv
	.type	_ZN5boost18condition_variable10notify_oneEv, @function
_ZN5boost18condition_variable10notify_oneEv:
.LFB5244:
	.loc 18 130 0
	.cfi_startproc
	push	rbp
.LCFI261:
	.cfi_def_cfa_offset 16
	.cfi_offset 6, -16
	mov	rbp, rsp
.LCFI262:
	.cfi_def_cfa_register 6
	sub	rsp, 32
	mov	QWORD PTR [rbp-24], rdi
.LBB77:
	.loc 18 132 0
	mov	rdx, QWORD PTR [rbp-24]
	lea	rax, [rbp-16]
	mov	rsi, rdx
	mov	rdi, rax
	call	_ZN5boost7pthread25pthread_mutex_scoped_lockC1EP15pthread_mutex_t
	.loc 18 134 0
	mov	rax, QWORD PTR [rbp-24]
	add	rax, 40
	mov	rdi, rax
	call	pthread_cond_signal
	test	eax, eax
	je	.L276
	.loc 18 134 0 is_stmt 0 discriminator 1
	mov	ecx, OFFSET FLAT:_ZZN5boost18condition_variable10notify_oneEvE19__PRETTY_FUNCTION__
	mov	edx, 134
	mov	esi, OFFSET FLAT:.LC16
	mov	edi, OFFSET FLAT:.LC17
	call	__assert_fail
.L276:
	.loc 18 134 0 discriminator 2
	lea	rax, [rbp-16]
	mov	rdi, rax
	call	_ZN5boost7pthread25pthread_mutex_scoped_lockD1Ev
.LBE77:
	.loc 18 135 0 is_stmt 1 discriminator 2
	leave
.LCFI263:
	.cfi_def_cfa 7, 8
	ret
	.cfi_endproc
.LFE5244:
	.size	_ZN5boost18condition_variable10notify_oneEv, .-_ZN5boost18condition_variable10notify_oneEv
	.section	.rodata
	.align 8
.LC18:
	.string	"!pthread_cond_broadcast(&cond)"
	.section	.text._ZN5boost18condition_variable10notify_allEv,"axG",@progbits,_ZN5boost18condition_variable10notify_allEv,comdat
	.align 2
	.weak	_ZN5boost18condition_variable10notify_allEv
	.type	_ZN5boost18condition_variable10notify_allEv, @function
_ZN5boost18condition_variable10notify_allEv:
.LFB5245:
	.loc 18 138 0
	.cfi_startproc
	push	rbp
.LCFI264:
	.cfi_def_cfa_offset 16
	.cfi_offset 6, -16
	mov	rbp, rsp
.LCFI265:
	.cfi_def_cfa_register 6
	sub	rsp, 32
	mov	QWORD PTR [rbp-24], rdi
.LBB78:
	.loc 18 140 0
	mov	rdx, QWORD PTR [rbp-24]
	lea	rax, [rbp-16]
	mov	rsi, rdx
	mov	rdi, rax
	call	_ZN5boost7pthread25pthread_mutex_scoped_lockC1EP15pthread_mutex_t
	.loc 18 142 0
	mov	rax, QWORD PTR [rbp-24]
	add	rax, 40
	mov	rdi, rax
	call	pthread_cond_broadcast
	test	eax, eax
	je	.L278
	.loc 18 142 0 is_stmt 0 discriminator 1
	mov	ecx, OFFSET FLAT:_ZZN5boost18condition_variable10notify_allEvE19__PRETTY_FUNCTION__
	mov	edx, 142
	mov	esi, OFFSET FLAT:.LC16
	mov	edi, OFFSET FLAT:.LC18
	call	__assert_fail
.L278:
	.loc 18 142 0 discriminator 2
	lea	rax, [rbp-16]
	mov	rdi, rax
	call	_ZN5boost7pthread25pthread_mutex_scoped_lockD1Ev
.LBE78:
	.loc 18 143 0 is_stmt 1 discriminator 2
	leave
.LCFI266:
	.cfi_def_cfa 7, 8
	ret
	.cfi_endproc
.LFE5245:
	.size	_ZN5boost18condition_variable10notify_allEv, .-_ZN5boost18condition_variable10notify_allEv
	.section	.text._ZN5boost12shared_mutex15release_waitersEv,"axG",@progbits,_ZN5boost12shared_mutex15release_waitersEv,comdat
	.align 2
	.weak	_ZN5boost12shared_mutex15release_waitersEv
	.type	_ZN5boost12shared_mutex15release_waitersEv, @function
_ZN5boost12shared_mutex15release_waitersEv:
.LFB5269:
	.file 19 "/usr/local/include/boost/thread/pthread/shared_mutex.hpp"
	.loc 19 47 0
	.cfi_startproc
	push	rbp
.LCFI267:
	.cfi_def_cfa_offset 16
	.cfi_offset 6, -16
	mov	rbp, rsp
.LCFI268:
	.cfi_def_cfa_register 6
	sub	rsp, 16
	mov	QWORD PTR [rbp-8], rdi
	.loc 19 49 0
	mov	rax, QWORD PTR [rbp-8]
	add	rax, 136
	mov	rdi, rax
	call	_ZN5boost18condition_variable10notify_oneEv
	.loc 19 50 0
	mov	rax, QWORD PTR [rbp-8]
	add	rax, 48
	mov	rdi, rax
	call	_ZN5boost18condition_variable10notify_allEv
	.loc 19 51 0
	leave
.LCFI269:
	.cfi_def_cfa 7, 8
	ret
	.cfi_endproc
.LFE5269:
	.size	_ZN5boost12shared_mutex15release_waitersEv, .-_ZN5boost12shared_mutex15release_waitersEv
	.section	.text._ZN5boost12shared_mutexC2Ev,"axG",@progbits,_ZN5boost12shared_mutexC5Ev,comdat
	.align 2
	.weak	_ZN5boost12shared_mutexC2Ev
	.type	_ZN5boost12shared_mutexC2Ev, @function
_ZN5boost12shared_mutexC2Ev:
.LFB5271:
	.loc 19 56 0
	.cfi_startproc
	.cfi_personality 0x3,__gxx_personality_v0
	.cfi_lsda 0x3,.LLSDA5271
	push	rbp
.LCFI270:
	.cfi_def_cfa_offset 16
	.cfi_offset 6, -16
	mov	rbp, rsp
.LCFI271:
	.cfi_def_cfa_register 6
	push	rbx
	sub	rsp, 40
	.cfi_offset 3, -24
	mov	QWORD PTR [rbp-40], rdi
.LBB79:
	.loc 19 57 0
	mov	rax, QWORD PTR [rbp-40]
	add	rax, 8
	mov	rdi, rax
.LEHB76:
	call	_ZN5boost5mutexC1Ev
.LEHE76:
	mov	rax, QWORD PTR [rbp-40]
	add	rax, 48
	mov	rdi, rax
.LEHB77:
	call	_ZN5boost18condition_variableC1Ev
.LEHE77:
	.loc 19 57 0 is_stmt 0 discriminator 1
	mov	rax, QWORD PTR [rbp-40]
	add	rax, 136
	mov	rdi, rax
.LEHB78:
	call	_ZN5boost18condition_variableC1Ev
.LEHE78:
	.loc 19 57 0 discriminator 2
	mov	rax, QWORD PTR [rbp-40]
	add	rax, 224
	mov	rdi, rax
.LEHB79:
	call	_ZN5boost18condition_variableC1Ev
.LEHE79:
.LBB80:
	.loc 19 58 0 is_stmt 1
	mov	DWORD PTR [rbp-32], 0
	mov	BYTE PTR [rbp-28], 0
	mov	BYTE PTR [rbp-27], 0
	mov	BYTE PTR [rbp-26], 0
	.loc 19 59 0
	mov	rax, QWORD PTR [rbp-40]
	mov	rdx, QWORD PTR [rbp-32]
	mov	QWORD PTR [rax], rdx
	jmp	.L287
.L286:
	mov	rbx, rax
.LBE80:
	.loc 19 57 0
	mov	rax, QWORD PTR [rbp-40]
	add	rax, 136
	mov	rdi, rax
	call	_ZN5boost18condition_variableD1Ev
	jmp	.L282
.L285:
	mov	rbx, rax
.L282:
	mov	rax, QWORD PTR [rbp-40]
	add	rax, 48
	mov	rdi, rax
	call	_ZN5boost18condition_variableD1Ev
	jmp	.L283
.L284:
	mov	rbx, rax
.L283:
	mov	rax, QWORD PTR [rbp-40]
	add	rax, 8
	mov	rdi, rax
	call	_ZN5boost5mutexD1Ev
	mov	rax, rbx
	mov	rdi, rax
.LEHB80:
	call	_Unwind_Resume
.LEHE80:
.L287:
.LBE79:
	.loc 19 60 0
	add	rsp, 40
	pop	rbx
	pop	rbp
.LCFI272:
	.cfi_def_cfa 7, 8
	ret
	.cfi_endproc
.LFE5271:
	.section	.gcc_except_table
.LLSDA5271:
	.byte	0xff
	.byte	0xff
	.byte	0x1
	.uleb128 .LLSDACSE5271-.LLSDACSB5271
.LLSDACSB5271:
	.uleb128 .LEHB76-.LFB5271
	.uleb128 .LEHE76-.LEHB76
	.uleb128 0
	.uleb128 0
	.uleb128 .LEHB77-.LFB5271
	.uleb128 .LEHE77-.LEHB77
	.uleb128 .L284-.LFB5271
	.uleb128 0
	.uleb128 .LEHB78-.LFB5271
	.uleb128 .LEHE78-.LEHB78
	.uleb128 .L285-.LFB5271
	.uleb128 0
	.uleb128 .LEHB79-.LFB5271
	.uleb128 .LEHE79-.LEHB79
	.uleb128 .L286-.LFB5271
	.uleb128 0
	.uleb128 .LEHB80-.LFB5271
	.uleb128 .LEHE80-.LEHB80
	.uleb128 0
	.uleb128 0
.LLSDACSE5271:
	.section	.text._ZN5boost12shared_mutexC2Ev,"axG",@progbits,_ZN5boost12shared_mutexC5Ev,comdat
	.size	_ZN5boost12shared_mutexC2Ev, .-_ZN5boost12shared_mutexC2Ev
	.weak	_ZN5boost12shared_mutexC1Ev
	.set	_ZN5boost12shared_mutexC1Ev,_ZN5boost12shared_mutexC2Ev
	.section	.text._ZN5boost12shared_mutexD2Ev,"axG",@progbits,_ZN5boost12shared_mutexD5Ev,comdat
	.align 2
	.weak	_ZN5boost12shared_mutexD2Ev
	.type	_ZN5boost12shared_mutexD2Ev, @function
_ZN5boost12shared_mutexD2Ev:
.LFB5274:
	.loc 19 62 0
	.cfi_startproc
	push	rbp
.LCFI273:
	.cfi_def_cfa_offset 16
	.cfi_offset 6, -16
	mov	rbp, rsp
.LCFI274:
	.cfi_def_cfa_register 6
	sub	rsp, 16
	mov	QWORD PTR [rbp-8], rdi
.LBB81:
	.loc 19 63 0
	mov	rax, QWORD PTR [rbp-8]
	add	rax, 224
	mov	rdi, rax
	call	_ZN5boost18condition_variableD1Ev
	mov	rax, QWORD PTR [rbp-8]
	add	rax, 136
	mov	rdi, rax
	call	_ZN5boost18condition_variableD1Ev
	mov	rax, QWORD PTR [rbp-8]
	add	rax, 48
	mov	rdi, rax
	call	_ZN5boost18condition_variableD1Ev
	mov	rax, QWORD PTR [rbp-8]
	add	rax, 8
	mov	rdi, rax
	call	_ZN5boost5mutexD1Ev
.LBE81:
	.loc 19 64 0
	leave
.LCFI275:
	.cfi_def_cfa 7, 8
	ret
	.cfi_endproc
.LFE5274:
	.size	_ZN5boost12shared_mutexD2Ev, .-_ZN5boost12shared_mutexD2Ev
	.weak	_ZN5boost12shared_mutexD1Ev
	.set	_ZN5boost12shared_mutexD1Ev,_ZN5boost12shared_mutexD2Ev
	.section	.text._ZN5boost12shared_mutex11lock_sharedEv,"axG",@progbits,_ZN5boost12shared_mutex11lock_sharedEv,comdat
	.align 2
	.weak	_ZN5boost12shared_mutex11lock_sharedEv
	.type	_ZN5boost12shared_mutex11lock_sharedEv, @function
_ZN5boost12shared_mutex11lock_sharedEv:
.LFB5276:
	.loc 19 66 0
	.cfi_startproc
	.cfi_personality 0x3,__gxx_personality_v0
	.cfi_lsda 0x3,.LLSDA5276
	push	rbp
.LCFI276:
	.cfi_def_cfa_offset 16
	.cfi_offset 6, -16
	mov	rbp, rsp
.LCFI277:
	.cfi_def_cfa_register 6
	push	rbx
	sub	rsp, 56
	.cfi_offset 3, -24
	mov	QWORD PTR [rbp-56], rdi
.LBB82:
	.loc 19 69 0
	lea	rax, [rbp-17]
	mov	rdi, rax
.LEHB81:
	call	_ZN5boost11this_thread20disable_interruptionC1Ev
.LEHE81:
	.loc 19 71 0
	mov	rax, QWORD PTR [rbp-56]
	lea	rdx, [rax+8]
	lea	rax, [rbp-48]
	mov	rsi, rdx
	mov	rdi, rax
.LEHB82:
	call	_ZN5boost11unique_lockINS_5mutexEEC1ERS1_
.LEHE82:
	.loc 19 73 0
	jmp	.L291
.L295:
	.loc 19 75 0
	mov	rax, QWORD PTR [rbp-56]
	lea	rdx, [rax+48]
	lea	rax, [rbp-48]
	mov	rsi, rax
	mov	rdi, rdx
.LEHB83:
	call	_ZN5boost18condition_variable4waitERNS_11unique_lockINS_5mutexEEE
.LEHE83:
.L291:
	.loc 19 73 0 discriminator 1
	mov	rax, QWORD PTR [rbp-56]
	movzx	eax, BYTE PTR [rax+4]
	test	al, al
	jne	.L292
	.loc 19 73 0 is_stmt 0 discriminator 3
	mov	rax, QWORD PTR [rbp-56]
	movzx	eax, BYTE PTR [rax+6]
	test	al, al
	je	.L293
.L292:
	.loc 19 73 0 discriminator 2
	mov	eax, 1
	jmp	.L294
.L293:
	.loc 19 73 0 discriminator 4
	mov	eax, 0
.L294:
	.loc 19 73 0 discriminator 5
	test	al, al
	jne	.L295
	.loc 19 77 0 is_stmt 1
	mov	rax, QWORD PTR [rbp-56]
	mov	eax, DWORD PTR [rax]
	lea	edx, [rax+1]
	mov	rax, QWORD PTR [rbp-56]
	mov	DWORD PTR [rax], edx
	lea	rax, [rbp-48]
	mov	rdi, rax
.LEHB84:
	call	_ZN5boost11unique_lockINS_5mutexEED1Ev
.LEHE84:
	.loc 19 77 0 is_stmt 0 discriminator 1
	lea	rax, [rbp-17]
	mov	rdi, rax
.LEHB85:
	call	_ZN5boost11this_thread20disable_interruptionD1Ev
.LEHE85:
.LBE82:
	.loc 19 78 0 is_stmt 1
	jmp	.L302
.L301:
	mov	rbx, rax
.LBB83:
	.loc 19 77 0
	lea	rax, [rbp-48]
	mov	rdi, rax
	call	_ZN5boost11unique_lockINS_5mutexEED1Ev
	jmp	.L297
.L300:
	mov	rbx, rax
.L297:
	lea	rax, [rbp-17]
	mov	rdi, rax
	call	_ZN5boost11this_thread20disable_interruptionD1Ev
	mov	rax, rbx
	jmp	.L298
.L299:
.L298:
	mov	rdi, rax
.LEHB86:
	call	_Unwind_Resume
.LEHE86:
.L302:
.LBE83:
	.loc 19 78 0
	add	rsp, 56
	pop	rbx
	pop	rbp
.LCFI278:
	.cfi_def_cfa 7, 8
	ret
	.cfi_endproc
.LFE5276:
	.section	.gcc_except_table
.LLSDA5276:
	.byte	0xff
	.byte	0xff
	.byte	0x1
	.uleb128 .LLSDACSE5276-.LLSDACSB5276
.LLSDACSB5276:
	.uleb128 .LEHB81-.LFB5276
	.uleb128 .LEHE81-.LEHB81
	.uleb128 .L299-.LFB5276
	.uleb128 0
	.uleb128 .LEHB82-.LFB5276
	.uleb128 .LEHE82-.LEHB82
	.uleb128 .L300-.LFB5276
	.uleb128 0
	.uleb128 .LEHB83-.LFB5276
	.uleb128 .LEHE83-.LEHB83
	.uleb128 .L301-.LFB5276
	.uleb128 0
	.uleb128 .LEHB84-.LFB5276
	.uleb128 .LEHE84-.LEHB84
	.uleb128 .L300-.LFB5276
	.uleb128 0
	.uleb128 .LEHB85-.LFB5276
	.uleb128 .LEHE85-.LEHB85
	.uleb128 .L299-.LFB5276
	.uleb128 0
	.uleb128 .LEHB86-.LFB5276
	.uleb128 .LEHE86-.LEHB86
	.uleb128 0
	.uleb128 0
.LLSDACSE5276:
	.section	.text._ZN5boost12shared_mutex11lock_sharedEv,"axG",@progbits,_ZN5boost12shared_mutex11lock_sharedEv,comdat
	.size	_ZN5boost12shared_mutex11lock_sharedEv, .-_ZN5boost12shared_mutex11lock_sharedEv
	.section	.text._ZN5boost12shared_mutex13unlock_sharedEv,"axG",@progbits,_ZN5boost12shared_mutex13unlock_sharedEv,comdat
	.align 2
	.weak	_ZN5boost12shared_mutex13unlock_sharedEv
	.type	_ZN5boost12shared_mutex13unlock_sharedEv, @function
_ZN5boost12shared_mutex13unlock_sharedEv:
.LFB5282:
	.loc 19 145 0
	.cfi_startproc
	.cfi_personality 0x3,__gxx_personality_v0
	.cfi_lsda 0x3,.LLSDA5282
	push	rbp
.LCFI279:
	.cfi_def_cfa_offset 16
	.cfi_offset 6, -16
	mov	rbp, rsp
.LCFI280:
	.cfi_def_cfa_register 6
	sub	rsp, 48
	mov	QWORD PTR [rbp-40], rdi
.LBB84:
	.loc 19 147 0
	mov	rax, QWORD PTR [rbp-40]
	lea	rdx, [rax+8]
	lea	rax, [rbp-32]
	mov	rsi, rdx
	mov	rdi, rax
.LEHB87:
	call	_ZN5boost11unique_lockINS_5mutexEEC1ERS1_
	.loc 19 148 0
	mov	rax, QWORD PTR [rbp-40]
	mov	eax, DWORD PTR [rax]
	lea	edx, [rax-1]
	mov	rax, QWORD PTR [rbp-40]
	mov	DWORD PTR [rax], edx
	mov	rax, QWORD PTR [rbp-40]
	mov	eax, DWORD PTR [rax]
	test	eax, eax
	sete	al
	mov	BYTE PTR [rbp-1], al
	.loc 19 150 0
	cmp	BYTE PTR [rbp-1], 0
	je	.L304
	.loc 19 152 0
	mov	rax, QWORD PTR [rbp-40]
	movzx	eax, BYTE PTR [rax+5]
	test	al, al
	je	.L305
	.loc 19 154 0
	mov	rax, QWORD PTR [rbp-40]
	mov	BYTE PTR [rax+5], 0
	.loc 19 155 0
	mov	rax, QWORD PTR [rbp-40]
	mov	BYTE PTR [rax+4], 1
	.loc 19 156 0
	mov	rax, QWORD PTR [rbp-40]
	add	rax, 224
	mov	rdi, rax
	call	_ZN5boost18condition_variable10notify_oneEv
	jmp	.L306
.L305:
	.loc 19 160 0
	mov	rax, QWORD PTR [rbp-40]
	mov	BYTE PTR [rax+6], 0
.L306:
	.loc 19 162 0
	mov	rax, QWORD PTR [rbp-40]
	mov	rdi, rax
	call	_ZN5boost12shared_mutex15release_waitersEv
.L304:
	.loc 19 163 0
	lea	rax, [rbp-32]
	mov	rdi, rax
	call	_ZN5boost11unique_lockINS_5mutexEED1Ev
.LEHE87:
.LBE84:
	.loc 19 164 0
	jmp	.L309
.L308:
	mov	rdi, rax
.LEHB88:
	call	_Unwind_Resume
.LEHE88:
.L309:
	leave
.LCFI281:
	.cfi_def_cfa 7, 8
	ret
	.cfi_endproc
.LFE5282:
	.section	.gcc_except_table
.LLSDA5282:
	.byte	0xff
	.byte	0xff
	.byte	0x1
	.uleb128 .LLSDACSE5282-.LLSDACSB5282
.LLSDACSB5282:
	.uleb128 .LEHB87-.LFB5282
	.uleb128 .LEHE87-.LEHB87
	.uleb128 .L308-.LFB5282
	.uleb128 0
	.uleb128 .LEHB88-.LFB5282
	.uleb128 .LEHE88-.LEHB88
	.uleb128 0
	.uleb128 0
.LLSDACSE5282:
	.section	.text._ZN5boost12shared_mutex13unlock_sharedEv,"axG",@progbits,_ZN5boost12shared_mutex13unlock_sharedEv,comdat
	.size	_ZN5boost12shared_mutex13unlock_sharedEv, .-_ZN5boost12shared_mutex13unlock_sharedEv
	.section	.text._ZN5boost12shared_mutex4lockEv,"axG",@progbits,_ZN5boost12shared_mutex4lockEv,comdat
	.align 2
	.weak	_ZN5boost12shared_mutex4lockEv
	.type	_ZN5boost12shared_mutex4lockEv, @function
_ZN5boost12shared_mutex4lockEv:
.LFB5283:
	.loc 19 166 0
	.cfi_startproc
	.cfi_personality 0x3,__gxx_personality_v0
	.cfi_lsda 0x3,.LLSDA5283
	push	rbp
.LCFI282:
	.cfi_def_cfa_offset 16
	.cfi_offset 6, -16
	mov	rbp, rsp
.LCFI283:
	.cfi_def_cfa_register 6
	push	rbx
	sub	rsp, 56
	.cfi_offset 3, -24
	mov	QWORD PTR [rbp-56], rdi
.LBB85:
	.loc 19 169 0
	lea	rax, [rbp-17]
	mov	rdi, rax
.LEHB89:
	call	_ZN5boost11this_thread20disable_interruptionC1Ev
.LEHE89:
	.loc 19 171 0
	mov	rax, QWORD PTR [rbp-56]
	lea	rdx, [rax+8]
	lea	rax, [rbp-48]
	mov	rsi, rdx
	mov	rdi, rax
.LEHB90:
	call	_ZN5boost11unique_lockINS_5mutexEEC1ERS1_
.LEHE90:
	.loc 19 173 0
	jmp	.L311
.L315:
	.loc 19 175 0
	mov	rax, QWORD PTR [rbp-56]
	mov	BYTE PTR [rax+6], 1
	.loc 19 176 0
	mov	rax, QWORD PTR [rbp-56]
	lea	rdx, [rax+136]
	lea	rax, [rbp-48]
	mov	rsi, rax
	mov	rdi, rdx
.LEHB91:
	call	_ZN5boost18condition_variable4waitERNS_11unique_lockINS_5mutexEEE
.LEHE91:
.L311:
	.loc 19 173 0 discriminator 1
	mov	rax, QWORD PTR [rbp-56]
	mov	eax, DWORD PTR [rax]
	test	eax, eax
	jne	.L312
	.loc 19 173 0 is_stmt 0 discriminator 3
	mov	rax, QWORD PTR [rbp-56]
	movzx	eax, BYTE PTR [rax+4]
	test	al, al
	je	.L313
.L312:
	.loc 19 173 0 discriminator 2
	mov	eax, 1
	jmp	.L314
.L313:
	.loc 19 173 0 discriminator 4
	mov	eax, 0
.L314:
	.loc 19 173 0 discriminator 5
	test	al, al
	jne	.L315
	.loc 19 178 0 is_stmt 1
	mov	rax, QWORD PTR [rbp-56]
	mov	BYTE PTR [rax+4], 1
	lea	rax, [rbp-48]
	mov	rdi, rax
.LEHB92:
	call	_ZN5boost11unique_lockINS_5mutexEED1Ev
.LEHE92:
	.loc 19 178 0 is_stmt 0 discriminator 1
	lea	rax, [rbp-17]
	mov	rdi, rax
.LEHB93:
	call	_ZN5boost11this_thread20disable_interruptionD1Ev
.LEHE93:
.LBE85:
	.loc 19 179 0 is_stmt 1
	jmp	.L322
.L321:
	mov	rbx, rax
.LBB86:
	.loc 19 178 0
	lea	rax, [rbp-48]
	mov	rdi, rax
	call	_ZN5boost11unique_lockINS_5mutexEED1Ev
	jmp	.L317
.L320:
	mov	rbx, rax
.L317:
	lea	rax, [rbp-17]
	mov	rdi, rax
	call	_ZN5boost11this_thread20disable_interruptionD1Ev
	mov	rax, rbx
	jmp	.L318
.L319:
.L318:
	mov	rdi, rax
.LEHB94:
	call	_Unwind_Resume
.LEHE94:
.L322:
.LBE86:
	.loc 19 179 0
	add	rsp, 56
	pop	rbx
	pop	rbp
.LCFI284:
	.cfi_def_cfa 7, 8
	ret
	.cfi_endproc
.LFE5283:
	.section	.gcc_except_table
.LLSDA5283:
	.byte	0xff
	.byte	0xff
	.byte	0x1
	.uleb128 .LLSDACSE5283-.LLSDACSB5283
.LLSDACSB5283:
	.uleb128 .LEHB89-.LFB5283
	.uleb128 .LEHE89-.LEHB89
	.uleb128 .L319-.LFB5283
	.uleb128 0
	.uleb128 .LEHB90-.LFB5283
	.uleb128 .LEHE90-.LEHB90
	.uleb128 .L320-.LFB5283
	.uleb128 0
	.uleb128 .LEHB91-.LFB5283
	.uleb128 .LEHE91-.LEHB91
	.uleb128 .L321-.LFB5283
	.uleb128 0
	.uleb128 .LEHB92-.LFB5283
	.uleb128 .LEHE92-.LEHB92
	.uleb128 .L320-.LFB5283
	.uleb128 0
	.uleb128 .LEHB93-.LFB5283
	.uleb128 .LEHE93-.LEHB93
	.uleb128 .L319-.LFB5283
	.uleb128 0
	.uleb128 .LEHB94-.LFB5283
	.uleb128 .LEHE94-.LEHB94
	.uleb128 0
	.uleb128 0
.LLSDACSE5283:
	.section	.text._ZN5boost12shared_mutex4lockEv,"axG",@progbits,_ZN5boost12shared_mutex4lockEv,comdat
	.size	_ZN5boost12shared_mutex4lockEv, .-_ZN5boost12shared_mutex4lockEv
	.section	.text._ZN5boost12shared_mutex6unlockEv,"axG",@progbits,_ZN5boost12shared_mutex6unlockEv,comdat
	.align 2
	.weak	_ZN5boost12shared_mutex6unlockEv
	.type	_ZN5boost12shared_mutex6unlockEv, @function
_ZN5boost12shared_mutex6unlockEv:
.LFB5289:
	.loc 19 262 0
	.cfi_startproc
	.cfi_personality 0x3,__gxx_personality_v0
	.cfi_lsda 0x3,.LLSDA5289
	push	rbp
.LCFI285:
	.cfi_def_cfa_offset 16
	.cfi_offset 6, -16
	mov	rbp, rsp
.LCFI286:
	.cfi_def_cfa_register 6
	sub	rsp, 32
	mov	QWORD PTR [rbp-24], rdi
.LBB87:
	.loc 19 264 0
	mov	rax, QWORD PTR [rbp-24]
	lea	rdx, [rax+8]
	lea	rax, [rbp-16]
	mov	rsi, rdx
	mov	rdi, rax
.LEHB95:
	call	_ZN5boost11unique_lockINS_5mutexEEC1ERS1_
	.loc 19 265 0
	mov	rax, QWORD PTR [rbp-24]
	mov	BYTE PTR [rax+4], 0
	.loc 19 266 0
	mov	rax, QWORD PTR [rbp-24]
	mov	BYTE PTR [rax+6], 0
	.loc 19 267 0
	mov	rax, QWORD PTR [rbp-24]
	mov	rdi, rax
	call	_ZN5boost12shared_mutex15release_waitersEv
	lea	rax, [rbp-16]
	mov	rdi, rax
	call	_ZN5boost11unique_lockINS_5mutexEED1Ev
.LEHE95:
.LBE87:
	.loc 19 268 0
	jmp	.L326
.L325:
	mov	rdi, rax
.LEHB96:
	call	_Unwind_Resume
.LEHE96:
.L326:
	leave
.LCFI287:
	.cfi_def_cfa 7, 8
	ret
	.cfi_endproc
.LFE5289:
	.section	.gcc_except_table
.LLSDA5289:
	.byte	0xff
	.byte	0xff
	.byte	0x1
	.uleb128 .LLSDACSE5289-.LLSDACSB5289
.LLSDACSB5289:
	.uleb128 .LEHB95-.LFB5289
	.uleb128 .LEHE95-.LEHB95
	.uleb128 .L325-.LFB5289
	.uleb128 0
	.uleb128 .LEHB96-.LFB5289
	.uleb128 .LEHE96-.LEHB96
	.uleb128 0
	.uleb128 0
.LLSDACSE5289:
	.section	.text._ZN5boost12shared_mutex6unlockEv,"axG",@progbits,_ZN5boost12shared_mutex6unlockEv,comdat
	.size	_ZN5boost12shared_mutex6unlockEv, .-_ZN5boost12shared_mutex6unlockEv
	.section	.text._ZNSt4listIPN5boost6threadESaIS2_EED2Ev,"axG",@progbits,_ZNSt4listIPN5boost6threadESaIS2_EED5Ev,comdat
	.align 2
	.weak	_ZNSt4listIPN5boost6threadESaIS2_EED2Ev
	.type	_ZNSt4listIPN5boost6threadESaIS2_EED2Ev, @function
_ZNSt4listIPN5boost6threadESaIS2_EED2Ev:
.LFB5306:
	.file 20 "/usr/include/c++/4.7/bits/stl_list.h"
	.loc 20 436 0
	.cfi_startproc
	push	rbp
.LCFI288:
	.cfi_def_cfa_offset 16
	.cfi_offset 6, -16
	mov	rbp, rsp
.LCFI289:
	.cfi_def_cfa_register 6
	sub	rsp, 16
	mov	QWORD PTR [rbp-8], rdi
.LBB88:
	.loc 20 436 0
	mov	rax, QWORD PTR [rbp-8]
	mov	rdi, rax
	call	_ZNSt10_List_baseIPN5boost6threadESaIS2_EED2Ev
.LBE88:
	leave
.LCFI290:
	.cfi_def_cfa 7, 8
	ret
	.cfi_endproc
.LFE5306:
	.size	_ZNSt4listIPN5boost6threadESaIS2_EED2Ev, .-_ZNSt4listIPN5boost6threadESaIS2_EED2Ev
	.weak	_ZNSt4listIPN5boost6threadESaIS2_EED1Ev
	.set	_ZNSt4listIPN5boost6threadESaIS2_EED1Ev,_ZNSt4listIPN5boost6threadESaIS2_EED2Ev
	.section	.text._ZN5boost12thread_groupC2Ev,"axG",@progbits,_ZN5boost12thread_groupC5Ev,comdat
	.align 2
	.weak	_ZN5boost12thread_groupC2Ev
	.type	_ZN5boost12thread_groupC2Ev, @function
_ZN5boost12thread_groupC2Ev:
.LFB5308:
	.file 21 "/usr/local/include/boost/thread/detail/thread_group.hpp"
	.loc 21 28 0
	.cfi_startproc
	.cfi_personality 0x3,__gxx_personality_v0
	.cfi_lsda 0x3,.LLSDA5308
	push	rbp
.LCFI291:
	.cfi_def_cfa_offset 16
	.cfi_offset 6, -16
	mov	rbp, rsp
.LCFI292:
	.cfi_def_cfa_register 6
	push	rbx
	sub	rsp, 24
	.cfi_offset 3, -24
	mov	QWORD PTR [rbp-24], rdi
.LBB89:
	.loc 21 28 0
	mov	rax, QWORD PTR [rbp-24]
	mov	rdi, rax
.LEHB97:
	call	_ZNSt4listIPN5boost6threadESaIS2_EEC1Ev
.LEHE97:
	mov	rax, QWORD PTR [rbp-24]
	add	rax, 16
	mov	rdi, rax
.LEHB98:
	call	_ZN5boost12shared_mutexC1Ev
.LEHE98:
.LBE89:
	jmp	.L332
.L331:
	mov	rbx, rax
.LBB90:
	mov	rax, QWORD PTR [rbp-24]
	mov	rdi, rax
	call	_ZNSt4listIPN5boost6threadESaIS2_EED1Ev
	mov	rax, rbx
	mov	rdi, rax
.LEHB99:
	call	_Unwind_Resume
.LEHE99:
.L332:
.LBE90:
	add	rsp, 24
	pop	rbx
	pop	rbp
.LCFI293:
	.cfi_def_cfa 7, 8
	ret
	.cfi_endproc
.LFE5308:
	.section	.gcc_except_table
.LLSDA5308:
	.byte	0xff
	.byte	0xff
	.byte	0x1
	.uleb128 .LLSDACSE5308-.LLSDACSB5308
.LLSDACSB5308:
	.uleb128 .LEHB97-.LFB5308
	.uleb128 .LEHE97-.LEHB97
	.uleb128 0
	.uleb128 0
	.uleb128 .LEHB98-.LFB5308
	.uleb128 .LEHE98-.LEHB98
	.uleb128 .L331-.LFB5308
	.uleb128 0
	.uleb128 .LEHB99-.LFB5308
	.uleb128 .LEHE99-.LEHB99
	.uleb128 0
	.uleb128 0
.LLSDACSE5308:
	.section	.text._ZN5boost12thread_groupC2Ev,"axG",@progbits,_ZN5boost12thread_groupC5Ev,comdat
	.size	_ZN5boost12thread_groupC2Ev, .-_ZN5boost12thread_groupC2Ev
	.weak	_ZN5boost12thread_groupC1Ev
	.set	_ZN5boost12thread_groupC1Ev,_ZN5boost12thread_groupC2Ev
	.section	.text._ZN5boost12thread_groupD2Ev,"axG",@progbits,_ZN5boost12thread_groupD5Ev,comdat
	.align 2
	.weak	_ZN5boost12thread_groupD2Ev
	.type	_ZN5boost12thread_groupD2Ev, @function
_ZN5boost12thread_groupD2Ev:
.LFB5311:
	.loc 21 29 0
	.cfi_startproc
	.cfi_personality 0x3,__gxx_personality_v0
	.cfi_lsda 0x3,.LLSDA5311
	push	rbp
.LCFI294:
	.cfi_def_cfa_offset 16
	.cfi_offset 6, -16
	mov	rbp, rsp
.LCFI295:
	.cfi_def_cfa_register 6
	push	rbx
	sub	rsp, 56
	.cfi_offset 3, -24
	mov	QWORD PTR [rbp-56], rdi
.LBB91:
.LBB92:
.LBB93:
	.loc 21 31 0
	mov	rax, QWORD PTR [rbp-56]
	mov	rdi, rax
.LEHB100:
	call	_ZNSt4listIPN5boost6threadESaIS2_EE5beginEv
	mov	QWORD PTR [rbp-32], rax
	mov	rax, QWORD PTR [rbp-56]
	mov	rdi, rax
	call	_ZNSt4listIPN5boost6threadESaIS2_EE3endEv
	.loc 21 31 0 is_stmt 0 discriminator 1
	mov	QWORD PTR [rbp-48], rax
	jmp	.L334
.L336:
	.loc 21 35 0 is_stmt 1
	lea	rax, [rbp-32]
	mov	rdi, rax
	call	_ZNKSt14_List_iteratorIPN5boost6threadEEdeEv
	mov	rbx, QWORD PTR [rax]
	test	rbx, rbx
	je	.L335
	.loc 21 35 0 is_stmt 0 discriminator 1
	mov	rdi, rbx
	call	_ZN5boost6threadD1Ev
.LEHE100:
	mov	rdi, rbx
	call	_ZdlPv
.L335:
	.loc 21 33 0 is_stmt 1
	lea	rax, [rbp-32]
	.loc 21 31 0
	mov	rdi, rax
	call	_ZNSt14_List_iteratorIPN5boost6threadEEppEv
.L334:
	.loc 21 31 0 is_stmt 0 discriminator 1
	lea	rdx, [rbp-48]
	.loc 21 32 0 is_stmt 1 discriminator 1
	lea	rax, [rbp-32]
	.loc 21 31 0 discriminator 1
	mov	rsi, rdx
	mov	rdi, rax
	call	_ZNKSt14_List_iteratorIPN5boost6threadEEneERKS3_
	test	al, al
	jne	.L336
.LBE93:
.LBE92:
	.loc 21 30 0
	mov	rax, QWORD PTR [rbp-56]
	add	rax, 16
	mov	rdi, rax
	call	_ZN5boost12shared_mutexD1Ev
	mov	rax, QWORD PTR [rbp-56]
	mov	rdi, rax
.LEHB101:
	call	_ZNSt4listIPN5boost6threadESaIS2_EED1Ev
.LEHE101:
	jmp	.L340
.L339:
	mov	rbx, rax
	mov	rax, QWORD PTR [rbp-56]
	add	rax, 16
	mov	rdi, rax
	call	_ZN5boost12shared_mutexD1Ev
	mov	rax, QWORD PTR [rbp-56]
	mov	rdi, rax
	call	_ZNSt4listIPN5boost6threadESaIS2_EED1Ev
	mov	rax, rbx
	mov	rdi, rax
.LEHB102:
	call	_Unwind_Resume
.LEHE102:
.L340:
.LBE91:
	.loc 21 37 0
	add	rsp, 56
	pop	rbx
	pop	rbp
.LCFI296:
	.cfi_def_cfa 7, 8
	ret
	.cfi_endproc
.LFE5311:
	.section	.gcc_except_table
.LLSDA5311:
	.byte	0xff
	.byte	0xff
	.byte	0x1
	.uleb128 .LLSDACSE5311-.LLSDACSB5311
.LLSDACSB5311:
	.uleb128 .LEHB100-.LFB5311
	.uleb128 .LEHE100-.LEHB100
	.uleb128 .L339-.LFB5311
	.uleb128 0
	.uleb128 .LEHB101-.LFB5311
	.uleb128 .LEHE101-.LEHB101
	.uleb128 0
	.uleb128 0
	.uleb128 .LEHB102-.LFB5311
	.uleb128 .LEHE102-.LEHB102
	.uleb128 0
	.uleb128 0
.LLSDACSE5311:
	.section	.text._ZN5boost12thread_groupD2Ev,"axG",@progbits,_ZN5boost12thread_groupD5Ev,comdat
	.size	_ZN5boost12thread_groupD2Ev, .-_ZN5boost12thread_groupD2Ev
	.weak	_ZN5boost12thread_groupD1Ev
	.set	_ZN5boost12thread_groupD1Ev,_ZN5boost12thread_groupD2Ev
	.section	.text._ZN5boost12thread_group8join_allEv,"axG",@progbits,_ZN5boost12thread_group8join_allEv,comdat
	.align 2
	.weak	_ZN5boost12thread_group8join_allEv
	.type	_ZN5boost12thread_group8join_allEv, @function
_ZN5boost12thread_group8join_allEv:
.LFB5318:
	.loc 21 106 0
	.cfi_startproc
	.cfi_personality 0x3,__gxx_personality_v0
	.cfi_lsda 0x3,.LLSDA5318
	push	rbp
.LCFI297:
	.cfi_def_cfa_offset 16
	.cfi_offset 6, -16
	mov	rbp, rsp
.LCFI298:
	.cfi_def_cfa_register 6
	push	rbx
	sub	rsp, 72
	.cfi_offset 3, -24
	mov	QWORD PTR [rbp-72], rdi
.LBB94:
	.loc 21 111 0
	mov	rax, QWORD PTR [rbp-72]
	lea	rdx, [rax+16]
	lea	rax, [rbp-32]
	mov	rsi, rdx
	mov	rdi, rax
.LEHB103:
	call	_ZN5boost11shared_lockINS_12shared_mutexEEC1ERS1_
.LEHE103:
.LBB95:
	.loc 21 113 0
	mov	rax, QWORD PTR [rbp-72]
	mov	rdi, rax
.LEHB104:
	call	_ZNSt4listIPN5boost6threadESaIS2_EE5beginEv
	mov	QWORD PTR [rbp-48], rax
	mov	rax, QWORD PTR [rbp-72]
	mov	rdi, rax
	call	_ZNSt4listIPN5boost6threadESaIS2_EE3endEv
	.loc 21 113 0 is_stmt 0 discriminator 1
	mov	QWORD PTR [rbp-64], rax
	jmp	.L342
.L344:
	.loc 21 117 0 is_stmt 1
	lea	rax, [rbp-48]
	mov	rdi, rax
	call	_ZNKSt14_List_iteratorIPN5boost6threadEEdeEv
	mov	rax, QWORD PTR [rax]
	mov	rdi, rax
	call	_ZNK5boost6thread8joinableEv
	test	al, al
	je	.L343
	.loc 21 118 0
	lea	rax, [rbp-48]
	mov	rdi, rax
	call	_ZNKSt14_List_iteratorIPN5boost6threadEEdeEv
	mov	rax, QWORD PTR [rax]
	mov	rdi, rax
	call	_ZN5boost6thread4joinEv
.LEHE104:
.L343:
	.loc 21 115 0
	lea	rax, [rbp-48]
	.loc 21 113 0
	mov	rdi, rax
	call	_ZNSt14_List_iteratorIPN5boost6threadEEppEv
.L342:
	.loc 21 113 0 is_stmt 0 discriminator 1
	lea	rdx, [rbp-64]
	.loc 21 114 0 is_stmt 1 discriminator 1
	lea	rax, [rbp-48]
	.loc 21 113 0 discriminator 1
	mov	rsi, rdx
	mov	rdi, rax
	call	_ZNKSt14_List_iteratorIPN5boost6threadEEneERKS3_
	test	al, al
	jne	.L344
.LBE95:
	.loc 21 119 0
	lea	rax, [rbp-32]
	mov	rdi, rax
.LEHB105:
	call	_ZN5boost11shared_lockINS_12shared_mutexEED1Ev
.LEHE105:
.LBE94:
	.loc 21 120 0
	jmp	.L349
.L348:
	mov	rbx, rax
.LBB96:
	.loc 21 119 0
	lea	rax, [rbp-32]
	mov	rdi, rax
	call	_ZN5boost11shared_lockINS_12shared_mutexEED1Ev
	mov	rax, rbx
	jmp	.L346
.L347:
.L346:
	mov	rdi, rax
.LEHB106:
	call	_Unwind_Resume
.LEHE106:
.L349:
.LBE96:
	.loc 21 120 0
	add	rsp, 72
	pop	rbx
	pop	rbp
.LCFI299:
	.cfi_def_cfa 7, 8
	ret
	.cfi_endproc
.LFE5318:
	.section	.gcc_except_table
.LLSDA5318:
	.byte	0xff
	.byte	0xff
	.byte	0x1
	.uleb128 .LLSDACSE5318-.LLSDACSB5318
.LLSDACSB5318:
	.uleb128 .LEHB103-.LFB5318
	.uleb128 .LEHE103-.LEHB103
	.uleb128 .L347-.LFB5318
	.uleb128 0
	.uleb128 .LEHB104-.LFB5318
	.uleb128 .LEHE104-.LEHB104
	.uleb128 .L348-.LFB5318
	.uleb128 0
	.uleb128 .LEHB105-.LFB5318
	.uleb128 .LEHE105-.LEHB105
	.uleb128 .L347-.LFB5318
	.uleb128 0
	.uleb128 .LEHB106-.LFB5318
	.uleb128 .LEHE106-.LEHB106
	.uleb128 0
	.uleb128 0
.LLSDACSE5318:
	.section	.text._ZN5boost12thread_group8join_allEv,"axG",@progbits,_ZN5boost12thread_group8join_allEv,comdat
	.size	_ZN5boost12thread_group8join_allEv, .-_ZN5boost12thread_group8join_allEv
	.section	.text._ZN5boost10shared_ptrIKNS_16exception_detail10clone_baseEED2Ev,"axG",@progbits,_ZN5boost10shared_ptrIKNS_16exception_detail10clone_baseEED5Ev,comdat
	.align 2
	.weak	_ZN5boost10shared_ptrIKNS_16exception_detail10clone_baseEED2Ev
	.type	_ZN5boost10shared_ptrIKNS_16exception_detail10clone_baseEED2Ev, @function
_ZN5boost10shared_ptrIKNS_16exception_detail10clone_baseEED2Ev:
.LFB5986:
	.loc 11 328 0
	.cfi_startproc
	push	rbp
.LCFI300:
	.cfi_def_cfa_offset 16
	.cfi_offset 6, -16
	mov	rbp, rsp
.LCFI301:
	.cfi_def_cfa_register 6
	sub	rsp, 16
	mov	QWORD PTR [rbp-8], rdi
.LBB97:
	.loc 11 328 0
	mov	rax, QWORD PTR [rbp-8]
	add	rax, 8
	mov	rdi, rax
	call	_ZN5boost6detail12shared_countD1Ev
.LBE97:
	leave
.LCFI302:
	.cfi_def_cfa 7, 8
	ret
	.cfi_endproc
.LFE5986:
	.size	_ZN5boost10shared_ptrIKNS_16exception_detail10clone_baseEED2Ev, .-_ZN5boost10shared_ptrIKNS_16exception_detail10clone_baseEED2Ev
	.weak	_ZN5boost10shared_ptrIKNS_16exception_detail10clone_baseEED1Ev
	.set	_ZN5boost10shared_ptrIKNS_16exception_detail10clone_baseEED1Ev,_ZN5boost10shared_ptrIKNS_16exception_detail10clone_baseEED2Ev
	.section	.text._ZN5boost10shared_ptrIKNS_16exception_detail10clone_baseEEC2ERKS4_,"axG",@progbits,_ZN5boost10shared_ptrIKNS_16exception_detail10clone_baseEEC5ERKS4_,comdat
	.align 2
	.weak	_ZN5boost10shared_ptrIKNS_16exception_detail10clone_baseEEC2ERKS4_
	.type	_ZN5boost10shared_ptrIKNS_16exception_detail10clone_baseEEC2ERKS4_, @function
_ZN5boost10shared_ptrIKNS_16exception_detail10clone_baseEEC2ERKS4_:
.LFB5992:
	.loc 11 328 0
	.cfi_startproc
	push	rbp
.LCFI303:
	.cfi_def_cfa_offset 16
	.cfi_offset 6, -16
	mov	rbp, rsp
.LCFI304:
	.cfi_def_cfa_register 6
	sub	rsp, 16
	mov	QWORD PTR [rbp-8], rdi
	mov	QWORD PTR [rbp-16], rsi
.LBB98:
	.loc 11 328 0
	mov	rax, QWORD PTR [rbp-16]
	mov	rdx, QWORD PTR [rax]
	mov	rax, QWORD PTR [rbp-8]
	mov	QWORD PTR [rax], rdx
	mov	rax, QWORD PTR [rbp-16]
	lea	rdx, [rax+8]
	mov	rax, QWORD PTR [rbp-8]
	add	rax, 8
	mov	rsi, rdx
	mov	rdi, rax
	call	_ZN5boost6detail12shared_countC1ERKS1_
.LBE98:
	leave
.LCFI305:
	.cfi_def_cfa 7, 8
	ret
	.cfi_endproc
.LFE5992:
	.size	_ZN5boost10shared_ptrIKNS_16exception_detail10clone_baseEEC2ERKS4_, .-_ZN5boost10shared_ptrIKNS_16exception_detail10clone_baseEEC2ERKS4_
	.weak	_ZN5boost10shared_ptrIKNS_16exception_detail10clone_baseEEC1ERKS4_
	.set	_ZN5boost10shared_ptrIKNS_16exception_detail10clone_baseEEC1ERKS4_,_ZN5boost10shared_ptrIKNS_16exception_detail10clone_baseEEC2ERKS4_
	.section	.text._ZN5boost13exception_ptrC2ERKNS_10shared_ptrIKNS_16exception_detail10clone_baseEEE,"axG",@progbits,_ZN5boost13exception_ptrC5ERKNS_10shared_ptrIKNS_16exception_detail10clone_baseEEE,comdat
	.align 2
	.weak	_ZN5boost13exception_ptrC2ERKNS_10shared_ptrIKNS_16exception_detail10clone_baseEEE
	.type	_ZN5boost13exception_ptrC2ERKNS_10shared_ptrIKNS_16exception_detail10clone_baseEEE, @function
_ZN5boost13exception_ptrC2ERKNS_10shared_ptrIKNS_16exception_detail10clone_baseEEE:
.LFB5994:
	.file 22 "/usr/local/include/boost/exception/detail/exception_ptr.hpp"
	.loc 22 49 0
	.cfi_startproc
	push	rbp
.LCFI306:
	.cfi_def_cfa_offset 16
	.cfi_offset 6, -16
	mov	rbp, rsp
.LCFI307:
	.cfi_def_cfa_register 6
	sub	rsp, 16
	mov	QWORD PTR [rbp-8], rdi
	mov	QWORD PTR [rbp-16], rsi
.LBB99:
	.loc 22 50 0
	mov	rax, QWORD PTR [rbp-8]
	mov	rdx, QWORD PTR [rbp-16]
	mov	rsi, rdx
	mov	rdi, rax
	call	_ZN5boost10shared_ptrIKNS_16exception_detail10clone_baseEEC1ERKS4_
.LBE99:
	.loc 22 52 0
	leave
.LCFI308:
	.cfi_def_cfa 7, 8
	ret
	.cfi_endproc
.LFE5994:
	.size	_ZN5boost13exception_ptrC2ERKNS_10shared_ptrIKNS_16exception_detail10clone_baseEEE, .-_ZN5boost13exception_ptrC2ERKNS_10shared_ptrIKNS_16exception_detail10clone_baseEEE
	.weak	_ZN5boost13exception_ptrC1ERKNS_10shared_ptrIKNS_16exception_detail10clone_baseEEE
	.set	_ZN5boost13exception_ptrC1ERKNS_10shared_ptrIKNS_16exception_detail10clone_baseEEE,_ZN5boost13exception_ptrC2ERKNS_10shared_ptrIKNS_16exception_detail10clone_baseEEE
	.section	.text._ZN5boost16exception_detail10bad_alloc_D2Ev,"axG",@progbits,_ZN5boost16exception_detail10bad_alloc_D5Ev,comdat
	.align 2
	.weak	_ZN5boost16exception_detail10bad_alloc_D2Ev
	.type	_ZN5boost16exception_detail10bad_alloc_D2Ev, @function
_ZN5boost16exception_detail10bad_alloc_D2Ev:
.LFB6002:
	.loc 22 104 0
	.cfi_startproc
	push	rbp
.LCFI309:
	.cfi_def_cfa_offset 16
	.cfi_offset 6, -16
	mov	rbp, rsp
.LCFI310:
	.cfi_def_cfa_register 6
	sub	rsp, 16
	mov	QWORD PTR [rbp-8], rdi
.LBB100:
	.loc 22 104 0
	mov	rax, QWORD PTR [rbp-8]
	mov	QWORD PTR [rax], OFFSET FLAT:_ZTVN5boost16exception_detail10bad_alloc_E+16
	mov	rax, QWORD PTR [rbp-8]
	mov	QWORD PTR [rax+40], OFFSET FLAT:_ZTVN5boost16exception_detail10bad_alloc_E+48
	mov	rax, QWORD PTR [rbp-8]
	add	rax, 40
	mov	rdi, rax
	call	_ZNSt9bad_allocD2Ev
	mov	rax, QWORD PTR [rbp-8]
	mov	rdi, rax
	call	_ZN5boost9exceptionD2Ev
.LBE100:
	mov	eax, 0
	and	eax, 1
	test	eax, eax
	je	.L354
	.loc 22 104 0 is_stmt 0 discriminator 1
	mov	rax, QWORD PTR [rbp-8]
	mov	rdi, rax
	call	_ZdlPv
.L354:
	.loc 22 104 0
	leave
.LCFI311:
	.cfi_def_cfa 7, 8
	ret
	.cfi_endproc
.LFE6002:
	.size	_ZN5boost16exception_detail10bad_alloc_D2Ev, .-_ZN5boost16exception_detail10bad_alloc_D2Ev
	.weak	_ZN5boost16exception_detail10bad_alloc_D1Ev
	.set	_ZN5boost16exception_detail10bad_alloc_D1Ev,_ZN5boost16exception_detail10bad_alloc_D2Ev
	.set	.LTHUNK0,_ZN5boost16exception_detail10bad_alloc_D1Ev
	.section	.text._ZN5boost16exception_detail10bad_alloc_D1Ev,"axG",@progbits,_ZN5boost16exception_detail10bad_alloc_D5Ev,comdat
	.weak	_ZThn40_N5boost16exception_detail10bad_alloc_D1Ev
	.type	_ZThn40_N5boost16exception_detail10bad_alloc_D1Ev, @function
_ZThn40_N5boost16exception_detail10bad_alloc_D1Ev:
.LFB10177:
	.cfi_startproc
	sub	rdi, 40
	jmp	.LTHUNK0
	.cfi_endproc
.LFE10177:
	.size	_ZThn40_N5boost16exception_detail10bad_alloc_D1Ev, .-_ZThn40_N5boost16exception_detail10bad_alloc_D1Ev
	.section	.text._ZN5boost16exception_detail10bad_alloc_D0Ev,"axG",@progbits,_ZN5boost16exception_detail10bad_alloc_D0Ev,comdat
	.align 2
	.weak	_ZN5boost16exception_detail10bad_alloc_D0Ev
	.type	_ZN5boost16exception_detail10bad_alloc_D0Ev, @function
_ZN5boost16exception_detail10bad_alloc_D0Ev:
.LFB6004:
	.loc 22 104 0 is_stmt 1
	.cfi_startproc
	push	rbp
.LCFI312:
	.cfi_def_cfa_offset 16
	.cfi_offset 6, -16
	mov	rbp, rsp
.LCFI313:
	.cfi_def_cfa_register 6
	sub	rsp, 16
	mov	QWORD PTR [rbp-8], rdi
	.loc 22 104 0
	mov	rax, QWORD PTR [rbp-8]
	mov	rdi, rax
	call	_ZN5boost16exception_detail10bad_alloc_D1Ev
	mov	rax, QWORD PTR [rbp-8]
	mov	rdi, rax
	call	_ZdlPv
	leave
.LCFI314:
	.cfi_def_cfa 7, 8
	ret
	.cfi_endproc
.LFE6004:
	.size	_ZN5boost16exception_detail10bad_alloc_D0Ev, .-_ZN5boost16exception_detail10bad_alloc_D0Ev
	.set	.LTHUNK1,_ZN5boost16exception_detail10bad_alloc_D0Ev
	.weak	_ZThn40_N5boost16exception_detail10bad_alloc_D0Ev
	.type	_ZThn40_N5boost16exception_detail10bad_alloc_D0Ev, @function
_ZThn40_N5boost16exception_detail10bad_alloc_D0Ev:
.LFB10178:
	.cfi_startproc
	sub	rdi, 40
	jmp	.LTHUNK1
	.cfi_endproc
.LFE10178:
	.size	_ZThn40_N5boost16exception_detail10bad_alloc_D0Ev, .-_ZThn40_N5boost16exception_detail10bad_alloc_D0Ev
	.section	.text._ZN5boost16exception_detail14bad_exception_D2Ev,"axG",@progbits,_ZN5boost16exception_detail14bad_exception_D5Ev,comdat
	.align 2
	.weak	_ZN5boost16exception_detail14bad_exception_D2Ev
	.type	_ZN5boost16exception_detail14bad_exception_D2Ev, @function
_ZN5boost16exception_detail14bad_exception_D2Ev:
.LFB6006:
	.loc 22 112 0
	.cfi_startproc
	push	rbp
.LCFI315:
	.cfi_def_cfa_offset 16
	.cfi_offset 6, -16
	mov	rbp, rsp
.LCFI316:
	.cfi_def_cfa_register 6
	sub	rsp, 16
	mov	QWORD PTR [rbp-8], rdi
.LBB101:
	.loc 22 112 0
	mov	rax, QWORD PTR [rbp-8]
	mov	QWORD PTR [rax], OFFSET FLAT:_ZTVN5boost16exception_detail14bad_exception_E+16
	mov	rax, QWORD PTR [rbp-8]
	mov	QWORD PTR [rax+40], OFFSET FLAT:_ZTVN5boost16exception_detail14bad_exception_E+48
	mov	rax, QWORD PTR [rbp-8]
	add	rax, 40
	mov	rdi, rax
	call	_ZNSt13bad_exceptionD2Ev
	mov	rax, QWORD PTR [rbp-8]
	mov	rdi, rax
	call	_ZN5boost9exceptionD2Ev
.LBE101:
	mov	eax, 0
	and	eax, 1
	test	eax, eax
	je	.L359
	.loc 22 112 0 is_stmt 0 discriminator 1
	mov	rax, QWORD PTR [rbp-8]
	mov	rdi, rax
	call	_ZdlPv
.L359:
	.loc 22 112 0
	leave
.LCFI317:
	.cfi_def_cfa 7, 8
	ret
	.cfi_endproc
.LFE6006:
	.size	_ZN5boost16exception_detail14bad_exception_D2Ev, .-_ZN5boost16exception_detail14bad_exception_D2Ev
	.weak	_ZN5boost16exception_detail14bad_exception_D1Ev
	.set	_ZN5boost16exception_detail14bad_exception_D1Ev,_ZN5boost16exception_detail14bad_exception_D2Ev
	.set	.LTHUNK2,_ZN5boost16exception_detail14bad_exception_D1Ev
	.section	.text._ZN5boost16exception_detail14bad_exception_D1Ev,"axG",@progbits,_ZN5boost16exception_detail14bad_exception_D5Ev,comdat
	.weak	_ZThn40_N5boost16exception_detail14bad_exception_D1Ev
	.type	_ZThn40_N5boost16exception_detail14bad_exception_D1Ev, @function
_ZThn40_N5boost16exception_detail14bad_exception_D1Ev:
.LFB10179:
	.cfi_startproc
	sub	rdi, 40
	jmp	.LTHUNK2
	.cfi_endproc
.LFE10179:
	.size	_ZThn40_N5boost16exception_detail14bad_exception_D1Ev, .-_ZThn40_N5boost16exception_detail14bad_exception_D1Ev
	.section	.text._ZN5boost16exception_detail14bad_exception_D0Ev,"axG",@progbits,_ZN5boost16exception_detail14bad_exception_D0Ev,comdat
	.align 2
	.weak	_ZN5boost16exception_detail14bad_exception_D0Ev
	.type	_ZN5boost16exception_detail14bad_exception_D0Ev, @function
_ZN5boost16exception_detail14bad_exception_D0Ev:
.LFB6008:
	.loc 22 112 0 is_stmt 1
	.cfi_startproc
	push	rbp
.LCFI318:
	.cfi_def_cfa_offset 16
	.cfi_offset 6, -16
	mov	rbp, rsp
.LCFI319:
	.cfi_def_cfa_register 6
	sub	rsp, 16
	mov	QWORD PTR [rbp-8], rdi
	.loc 22 112 0
	mov	rax, QWORD PTR [rbp-8]
	mov	rdi, rax
	call	_ZN5boost16exception_detail14bad_exception_D1Ev
	mov	rax, QWORD PTR [rbp-8]
	mov	rdi, rax
	call	_ZdlPv
	leave
.LCFI320:
	.cfi_def_cfa 7, 8
	ret
	.cfi_endproc
.LFE6008:
	.size	_ZN5boost16exception_detail14bad_exception_D0Ev, .-_ZN5boost16exception_detail14bad_exception_D0Ev
	.set	.LTHUNK3,_ZN5boost16exception_detail14bad_exception_D0Ev
	.weak	_ZThn40_N5boost16exception_detail14bad_exception_D0Ev
	.type	_ZThn40_N5boost16exception_detail14bad_exception_D0Ev, @function
_ZThn40_N5boost16exception_detail14bad_exception_D0Ev:
.LFB10180:
	.cfi_startproc
	sub	rdi, 40
	jmp	.LTHUNK3
	.cfi_endproc
.LFE10180:
	.size	_ZThn40_N5boost16exception_detail14bad_exception_D0Ev, .-_ZThn40_N5boost16exception_detail14bad_exception_D0Ev
	.section	.text._ZN5boost9exceptionC2ERKS0_,"axG",@progbits,_ZN5boost9exceptionC5ERKS0_,comdat
	.align 2
	.weak	_ZN5boost9exceptionC2ERKS0_
	.type	_ZN5boost9exceptionC2ERKS0_, @function
_ZN5boost9exceptionC2ERKS0_:
.LFB6018:
	.loc 7 208 0
	.cfi_startproc
	push	rbp
.LCFI321:
	.cfi_def_cfa_offset 16
	.cfi_offset 6, -16
	mov	rbp, rsp
.LCFI322:
	.cfi_def_cfa_register 6
	sub	rsp, 16
	mov	QWORD PTR [rbp-8], rdi
	mov	QWORD PTR [rbp-16], rsi
.LBB102:
	.loc 7 208 0
	mov	rax, QWORD PTR [rbp-8]
	mov	QWORD PTR [rax], OFFSET FLAT:_ZTVN5boost9exceptionE+16
	mov	rax, QWORD PTR [rbp-16]
	lea	rdx, [rax+8]
	mov	rax, QWORD PTR [rbp-8]
	add	rax, 8
	mov	rsi, rdx
	mov	rdi, rax
	call	_ZN5boost16exception_detail12refcount_ptrINS0_20error_info_containerEEC1ERKS3_
	mov	rax, QWORD PTR [rbp-16]
	mov	rdx, QWORD PTR [rax+16]
	mov	rax, QWORD PTR [rbp-8]
	mov	QWORD PTR [rax+16], rdx
	mov	rax, QWORD PTR [rbp-16]
	mov	rdx, QWORD PTR [rax+24]
	mov	rax, QWORD PTR [rbp-8]
	mov	QWORD PTR [rax+24], rdx
	mov	rax, QWORD PTR [rbp-16]
	mov	edx, DWORD PTR [rax+32]
	mov	rax, QWORD PTR [rbp-8]
	mov	DWORD PTR [rax+32], edx
.LBE102:
	leave
.LCFI323:
	.cfi_def_cfa 7, 8
	ret
	.cfi_endproc
.LFE6018:
	.size	_ZN5boost9exceptionC2ERKS0_, .-_ZN5boost9exceptionC2ERKS0_
	.weak	_ZN5boost9exceptionC1ERKS0_
	.set	_ZN5boost9exceptionC1ERKS0_,_ZN5boost9exceptionC2ERKS0_
	.section	.text._ZN5boost13exception_ptrD2Ev,"axG",@progbits,_ZN5boost13exception_ptrD5Ev,comdat
	.align 2
	.weak	_ZN5boost13exception_ptrD2Ev
	.type	_ZN5boost13exception_ptrD2Ev, @function
_ZN5boost13exception_ptrD2Ev:
.LFB6035:
	.loc 22 38 0
	.cfi_startproc
	push	rbp
.LCFI324:
	.cfi_def_cfa_offset 16
	.cfi_offset 6, -16
	mov	rbp, rsp
.LCFI325:
	.cfi_def_cfa_register 6
	sub	rsp, 16
	mov	QWORD PTR [rbp-8], rdi
.LBB103:
	.loc 22 38 0
	mov	rax, QWORD PTR [rbp-8]
	mov	rdi, rax
	call	_ZN5boost10shared_ptrIKNS_16exception_detail10clone_baseEED1Ev
.LBE103:
	leave
.LCFI326:
	.cfi_def_cfa 7, 8
	ret
	.cfi_endproc
.LFE6035:
	.size	_ZN5boost13exception_ptrD2Ev, .-_ZN5boost13exception_ptrD2Ev
	.weak	_ZN5boost13exception_ptrD1Ev
	.set	_ZN5boost13exception_ptrD1Ev,_ZN5boost13exception_ptrD2Ev
	.section	.text._ZN5boost13exception_ptrC2ERKS0_,"axG",@progbits,_ZN5boost13exception_ptrC5ERKS0_,comdat
	.align 2
	.weak	_ZN5boost13exception_ptrC2ERKS0_
	.type	_ZN5boost13exception_ptrC2ERKS0_, @function
_ZN5boost13exception_ptrC2ERKS0_:
.LFB6038:
	.loc 22 38 0
	.cfi_startproc
	push	rbp
.LCFI327:
	.cfi_def_cfa_offset 16
	.cfi_offset 6, -16
	mov	rbp, rsp
.LCFI328:
	.cfi_def_cfa_register 6
	sub	rsp, 16
	mov	QWORD PTR [rbp-8], rdi
	mov	QWORD PTR [rbp-16], rsi
.LBB104:
	.loc 22 38 0
	mov	rdx, QWORD PTR [rbp-16]
	mov	rax, QWORD PTR [rbp-8]
	mov	rsi, rdx
	mov	rdi, rax
	call	_ZN5boost10shared_ptrIKNS_16exception_detail10clone_baseEEC1ERKS4_
.LBE104:
	leave
.LCFI329:
	.cfi_def_cfa 7, 8
	ret
	.cfi_endproc
.LFE6038:
	.size	_ZN5boost13exception_ptrC2ERKS0_, .-_ZN5boost13exception_ptrC2ERKS0_
	.weak	_ZN5boost13exception_ptrC1ERKS0_
	.set	_ZN5boost13exception_ptrC1ERKS0_,_ZN5boost13exception_ptrC2ERKS0_
	.globl	bf
	.bss
	.align 4
	.type	bf, @object
	.size	bf, 4
bf:
	.zero	4
	.text
	.globl	_Z17concurrent_task_Av
	.type	_Z17concurrent_task_Av, @function
_Z17concurrent_task_Av:
.LFB7123:
	.file 23 "bit.cpp"
	.loc 23 15 0
	.cfi_startproc
	push	rbp
.LCFI330:
	.cfi_def_cfa_offset 16
	.cfi_offset 6, -16
	mov	rbp, rsp
.LCFI331:
	.cfi_def_cfa_register 6
.LBB105:
.LBB106:
	.loc 23 16 0
	mov	QWORD PTR [rbp-8], 0
	jmp	.L369
.L370:
	.loc 23 18 0 discriminator 2
	movzx	eax, BYTE PTR bf[rip]
	sal	eax, 4
	sar	al, 4
	add	eax, 1
	sal	eax, 4
	sar	al, 4
	mov	edx, eax
	and	edx, 15
	movzx	eax, BYTE PTR bf[rip]
	and	eax, -16
	or	eax, edx
	mov	BYTE PTR bf[rip], al
	.loc 23 16 0 discriminator 2
	add	QWORD PTR [rbp-8], 1
.L369:
	.loc 23 16 0 is_stmt 0 discriminator 1
	cmp	QWORD PTR [rbp-8], 54122
	setle	al
	test	al, al
	jne	.L370
.LBE106:
.LBE105:
	.loc 23 20 0 is_stmt 1
	pop	rbp
.LCFI332:
	.cfi_def_cfa 7, 8
	ret
	.cfi_endproc
.LFE7123:
	.size	_Z17concurrent_task_Av, .-_Z17concurrent_task_Av
	.globl	_Z17concurrent_task_Bv
	.type	_Z17concurrent_task_Bv, @function
_Z17concurrent_task_Bv:
.LFB7124:
	.loc 23 23 0
	.cfi_startproc
	push	rbp
.LCFI333:
	.cfi_def_cfa_offset 16
	.cfi_offset 6, -16
	mov	rbp, rsp
.LCFI334:
	.cfi_def_cfa_register 6
.LBB107:
.LBB108:
	.loc 23 24 0
	mov	QWORD PTR [rbp-8], 0
	jmp	.L372
.L373:
	.loc 23 26 0 discriminator 2
	movzx	eax, BYTE PTR bf[rip]
	sar	al, 4
	add	eax, 1
	sal	eax, 4
	sar	al, 4
	mov	edx, eax
	sal	edx, 4
	movzx	eax, BYTE PTR bf[rip]
	and	eax, 15
	or	eax, edx
	mov	BYTE PTR bf[rip], al
	.loc 23 24 0 discriminator 2
	add	QWORD PTR [rbp-8], 1
.L372:
	.loc 23 24 0 is_stmt 0 discriminator 1
	cmp	QWORD PTR [rbp-8], 54122
	setle	al
	test	al, al
	jne	.L373
.LBE108:
.LBE107:
	.loc 23 28 0 is_stmt 1
	pop	rbp
.LCFI335:
	.cfi_def_cfa 7, 8
	ret
	.cfi_endproc
.LFE7124:
	.size	_Z17concurrent_task_Bv, .-_Z17concurrent_task_Bv
	.section	.rodata
.LC19:
	.string	" : "
	.text
	.globl	main
	.type	main, @function
main:
.LFB7125:
	.loc 23 32 0
	.cfi_startproc
	.cfi_personality 0x3,__gxx_personality_v0
	.cfi_lsda 0x3,.LLSDA7125
	push	rbp
.LCFI336:
	.cfi_def_cfa_offset 16
	.cfi_offset 6, -16
	mov	rbp, rsp
.LCFI337:
	.cfi_def_cfa_register 6
	push	rbx
	sub	rsp, 344
	.cfi_offset 3, -24
.LBB109:
	.loc 23 34 0
	lea	rax, [rbp-352]
	mov	rdi, rax
.LEHB107:
	call	_ZN5boost12thread_groupC1Ev
.LEHE107:
	.loc 23 36 0
	lea	rax, [rbp-352]
	mov	esi, OFFSET FLAT:_Z17concurrent_task_Av
	mov	rdi, rax
.LEHB108:
	call	_ZN5boost12thread_group13create_threadIPFvvEEEPNS_6threadET_
	.loc 23 37 0
	lea	rax, [rbp-352]
	mov	esi, OFFSET FLAT:_Z17concurrent_task_Bv
	mov	rdi, rax
	call	_ZN5boost12thread_group13create_threadIPFvvEEEPNS_6threadET_
	.loc 23 39 0
	lea	rax, [rbp-352]
	mov	rdi, rax
	call	_ZN5boost12thread_group8join_allEv
	.loc 23 42 0
	movzx	eax, BYTE PTR bf[rip]
	sar	al, 4
	movsx	ebx, al
	movzx	eax, BYTE PTR bf[rip]
	sal	eax, 4
	sar	al, 4
	movsx	eax, al
	mov	esi, eax
	mov	edi, OFFSET FLAT:_ZSt4cout
	call	_ZNSolsEi
	mov	esi, OFFSET FLAT:.LC19
	mov	rdi, rax
	call	_ZStlsISt11char_traitsIcEERSt13basic_ostreamIcT_ES5_PKc
	.loc 23 42 0 is_stmt 0 discriminator 1
	mov	esi, ebx
	mov	rdi, rax
	call	_ZNSolsEi
	mov	esi, OFFSET FLAT:_ZSt4endlIcSt11char_traitsIcEERSt13basic_ostreamIT_T0_ES6_
	mov	rdi, rax
	call	_ZNSolsEPFRSoS_E
.LEHE108:
	lea	rax, [rbp-352]
	mov	rdi, rax
.LEHB109:
	call	_ZN5boost12thread_groupD1Ev
.LEHE109:
.LBE109:
	.loc 23 44 0 is_stmt 1
	mov	eax, 0
	jmp	.L380
.L379:
	mov	rbx, rax
.LBB110:
	.loc 23 42 0
	lea	rax, [rbp-352]
	mov	rdi, rax
	call	_ZN5boost12thread_groupD1Ev
	mov	rax, rbx
	jmp	.L377
.L378:
.L377:
	mov	rdi, rax
.LEHB110:
	call	_Unwind_Resume
.LEHE110:
.L380:
.LBE110:
	.loc 23 44 0
	add	rsp, 344
	pop	rbx
	pop	rbp
.LCFI338:
	.cfi_def_cfa 7, 8
	ret
	.cfi_endproc
.LFE7125:
	.section	.gcc_except_table
.LLSDA7125:
	.byte	0xff
	.byte	0xff
	.byte	0x1
	.uleb128 .LLSDACSE7125-.LLSDACSB7125
.LLSDACSB7125:
	.uleb128 .LEHB107-.LFB7125
	.uleb128 .LEHE107-.LEHB107
	.uleb128 .L378-.LFB7125
	.uleb128 0
	.uleb128 .LEHB108-.LFB7125
	.uleb128 .LEHE108-.LEHB108
	.uleb128 .L379-.LFB7125
	.uleb128 0
	.uleb128 .LEHB109-.LFB7125
	.uleb128 .LEHE109-.LEHB109
	.uleb128 .L378-.LFB7125
	.uleb128 0
	.uleb128 .LEHB110-.LFB7125
	.uleb128 .LEHE110-.LEHB110
	.uleb128 0
	.uleb128 0
.LLSDACSE7125:
	.text
	.size	main, .-main
	.section	.text._ZN5boost16exception_detail12refcount_ptrINS0_20error_info_containerEEC2Ev,"axG",@progbits,_ZN5boost16exception_detail12refcount_ptrINS0_20error_info_containerEEC5Ev,comdat
	.align 2
	.weak	_ZN5boost16exception_detail12refcount_ptrINS0_20error_info_containerEEC2Ev
	.type	_ZN5boost16exception_detail12refcount_ptrINS0_20error_info_containerEEC2Ev, @function
_ZN5boost16exception_detail12refcount_ptrINS0_20error_info_containerEEC2Ev:
.LFB7153:
	.loc 7 27 0
	.cfi_startproc
	push	rbp
.LCFI339:
	.cfi_def_cfa_offset 16
	.cfi_offset 6, -16
	mov	rbp, rsp
.LCFI340:
	.cfi_def_cfa_register 6
	mov	QWORD PTR [rbp-8], rdi
.LBB111:
	.loc 7 28 0
	mov	rax, QWORD PTR [rbp-8]
	mov	QWORD PTR [rax], 0
.LBE111:
	.loc 7 30 0
	pop	rbp
.LCFI341:
	.cfi_def_cfa 7, 8
	ret
	.cfi_endproc
.LFE7153:
	.size	_ZN5boost16exception_detail12refcount_ptrINS0_20error_info_containerEEC2Ev, .-_ZN5boost16exception_detail12refcount_ptrINS0_20error_info_containerEEC2Ev
	.weak	_ZN5boost16exception_detail12refcount_ptrINS0_20error_info_containerEEC1Ev
	.set	_ZN5boost16exception_detail12refcount_ptrINS0_20error_info_containerEEC1Ev,_ZN5boost16exception_detail12refcount_ptrINS0_20error_info_containerEEC2Ev
	.section	.text._ZN5boost16exception_detail12refcount_ptrINS0_20error_info_containerEED2Ev,"axG",@progbits,_ZN5boost16exception_detail12refcount_ptrINS0_20error_info_containerEED5Ev,comdat
	.align 2
	.weak	_ZN5boost16exception_detail12refcount_ptrINS0_20error_info_containerEED2Ev
	.type	_ZN5boost16exception_detail12refcount_ptrINS0_20error_info_containerEED2Ev, @function
_ZN5boost16exception_detail12refcount_ptrINS0_20error_info_containerEED2Ev:
.LFB7156:
	.loc 7 32 0
	.cfi_startproc
	push	rbp
.LCFI342:
	.cfi_def_cfa_offset 16
	.cfi_offset 6, -16
	mov	rbp, rsp
.LCFI343:
	.cfi_def_cfa_register 6
	sub	rsp, 16
	mov	QWORD PTR [rbp-8], rdi
.LBB112:
	.loc 7 34 0
	mov	rax, QWORD PTR [rbp-8]
	mov	rdi, rax
	call	_ZN5boost16exception_detail12refcount_ptrINS0_20error_info_containerEE7releaseEv
.LBE112:
	.loc 7 35 0
	leave
.LCFI344:
	.cfi_def_cfa 7, 8
	ret
	.cfi_endproc
.LFE7156:
	.size	_ZN5boost16exception_detail12refcount_ptrINS0_20error_info_containerEED2Ev, .-_ZN5boost16exception_detail12refcount_ptrINS0_20error_info_containerEED2Ev
	.weak	_ZN5boost16exception_detail12refcount_ptrINS0_20error_info_containerEED1Ev
	.set	_ZN5boost16exception_detail12refcount_ptrINS0_20error_info_containerEED1Ev,_ZN5boost16exception_detail12refcount_ptrINS0_20error_info_containerEED2Ev
	.section	.text._ZNK5boost16exception_detail12refcount_ptrINS0_20error_info_containerEE3getEv,"axG",@progbits,_ZNK5boost16exception_detail12refcount_ptrINS0_20error_info_containerEE3getEv,comdat
	.align 2
	.weak	_ZNK5boost16exception_detail12refcount_ptrINS0_20error_info_containerEE3getEv
	.type	_ZNK5boost16exception_detail12refcount_ptrINS0_20error_info_containerEE3getEv, @function
_ZNK5boost16exception_detail12refcount_ptrINS0_20error_info_containerEE3getEv:
.LFB7158:
	.loc 7 59 0
	.cfi_startproc
	push	rbp
.LCFI345:
	.cfi_def_cfa_offset 16
	.cfi_offset 6, -16
	mov	rbp, rsp
.LCFI346:
	.cfi_def_cfa_register 6
	mov	QWORD PTR [rbp-8], rdi
	.loc 7 61 0
	mov	rax, QWORD PTR [rbp-8]
	mov	rax, QWORD PTR [rax]
	.loc 7 62 0
	pop	rbp
.LCFI347:
	.cfi_def_cfa 7, 8
	ret
	.cfi_endproc
.LFE7158:
	.size	_ZNK5boost16exception_detail12refcount_ptrINS0_20error_info_containerEE3getEv, .-_ZNK5boost16exception_detail12refcount_ptrINS0_20error_info_containerEE3getEv
	.section	.text._ZN5boost16exception_detail12refcount_ptrINS0_20error_info_containerEEaSERKS3_,"axG",@progbits,_ZN5boost16exception_detail12refcount_ptrINS0_20error_info_containerEEaSERKS3_,comdat
	.align 2
	.weak	_ZN5boost16exception_detail12refcount_ptrINS0_20error_info_containerEEaSERKS3_
	.type	_ZN5boost16exception_detail12refcount_ptrINS0_20error_info_containerEEaSERKS3_, @function
_ZN5boost16exception_detail12refcount_ptrINS0_20error_info_containerEEaSERKS3_:
.LFB7159:
	.loc 7 44 0
	.cfi_startproc
	push	rbp
.LCFI348:
	.cfi_def_cfa_offset 16
	.cfi_offset 6, -16
	mov	rbp, rsp
.LCFI349:
	.cfi_def_cfa_register 6
	sub	rsp, 16
	mov	QWORD PTR [rbp-8], rdi
	mov	QWORD PTR [rbp-16], rsi
	.loc 7 46 0
	mov	rax, QWORD PTR [rbp-16]
	mov	rdx, QWORD PTR [rax]
	mov	rax, QWORD PTR [rbp-8]
	mov	rsi, rdx
	mov	rdi, rax
	call	_ZN5boost16exception_detail12refcount_ptrINS0_20error_info_containerEE5adoptEPS2_
	.loc 7 47 0
	mov	rax, QWORD PTR [rbp-8]
	.loc 7 48 0
	leave
.LCFI350:
	.cfi_def_cfa 7, 8
	ret
	.cfi_endproc
.LFE7159:
	.size	_ZN5boost16exception_detail12refcount_ptrINS0_20error_info_containerEEaSERKS3_, .-_ZN5boost16exception_detail12refcount_ptrINS0_20error_info_containerEEaSERKS3_
	.section	.text._ZN5boost16exception_detail10clone_baseC2ERKS1_,"axG",@progbits,_ZN5boost16exception_detail10clone_baseC5ERKS1_,comdat
	.align 2
	.weak	_ZN5boost16exception_detail10clone_baseC2ERKS1_
	.type	_ZN5boost16exception_detail10clone_baseC2ERKS1_, @function
_ZN5boost16exception_detail10clone_baseC2ERKS1_:
.LFB7163:
	.loc 7 392 0
	.cfi_startproc
	push	rbp
.LCFI351:
	.cfi_def_cfa_offset 16
	.cfi_offset 6, -16
	mov	rbp, rsp
.LCFI352:
	.cfi_def_cfa_register 6
	mov	QWORD PTR [rbp-8], rdi
	mov	QWORD PTR [rbp-16], rsi
.LBB113:
	.loc 7 392 0
	mov	rax, QWORD PTR [rbp-8]
	mov	QWORD PTR [rax], OFFSET FLAT:_ZTVN5boost16exception_detail10clone_baseE+16
.LBE113:
	pop	rbp
.LCFI353:
	.cfi_def_cfa 7, 8
	ret
	.cfi_endproc
.LFE7163:
	.size	_ZN5boost16exception_detail10clone_baseC2ERKS1_, .-_ZN5boost16exception_detail10clone_baseC2ERKS1_
	.weak	_ZN5boost16exception_detail10clone_baseC1ERKS1_
	.set	_ZN5boost16exception_detail10clone_baseC1ERKS1_,_ZN5boost16exception_detail10clone_baseC2ERKS1_
	.section	.text._ZNSt9exceptionC2ERKS_,"axG",@progbits,_ZNSt9exceptionC5ERKS_,comdat
	.align 2
	.weak	_ZNSt9exceptionC2ERKS_
	.type	_ZNSt9exceptionC2ERKS_, @function
_ZNSt9exceptionC2ERKS_:
.LFB7168:
	.loc 1 62 0
	.cfi_startproc
	push	rbp
.LCFI354:
	.cfi_def_cfa_offset 16
	.cfi_offset 6, -16
	mov	rbp, rsp
.LCFI355:
	.cfi_def_cfa_register 6
	mov	QWORD PTR [rbp-8], rdi
	mov	QWORD PTR [rbp-16], rsi
.LBB114:
	.loc 1 62 0
	mov	rax, QWORD PTR [rbp-8]
	mov	QWORD PTR [rax], OFFSET FLAT:_ZTVSt9exception+16
.LBE114:
	pop	rbp
.LCFI356:
	.cfi_def_cfa 7, 8
	ret
	.cfi_endproc
.LFE7168:
	.size	_ZNSt9exceptionC2ERKS_, .-_ZNSt9exceptionC2ERKS_
	.weak	_ZNSt9exceptionC1ERKS_
	.set	_ZNSt9exceptionC1ERKS_,_ZNSt9exceptionC2ERKS_
	.section	.text._ZNSt13runtime_errorC2ERKS_,"axG",@progbits,_ZNSt13runtime_errorC5ERKS_,comdat
	.align 2
	.weak	_ZNSt13runtime_errorC2ERKS_
	.type	_ZNSt13runtime_errorC2ERKS_, @function
_ZNSt13runtime_errorC2ERKS_:
.LFB7170:
	.file 24 "/usr/include/c++/4.7/stdexcept"
	.loc 24 113 0
	.cfi_startproc
	.cfi_personality 0x3,__gxx_personality_v0
	.cfi_lsda 0x3,.LLSDA7170
	push	rbp
.LCFI357:
	.cfi_def_cfa_offset 16
	.cfi_offset 6, -16
	mov	rbp, rsp
.LCFI358:
	.cfi_def_cfa_register 6
	push	rbx
	sub	rsp, 24
	.cfi_offset 3, -24
	mov	QWORD PTR [rbp-24], rdi
	mov	QWORD PTR [rbp-32], rsi
.LBB115:
	.loc 24 113 0
	mov	rdx, QWORD PTR [rbp-32]
	mov	rax, QWORD PTR [rbp-24]
	mov	rsi, rdx
	mov	rdi, rax
	call	_ZNSt9exceptionC2ERKS_
	mov	rax, QWORD PTR [rbp-24]
	mov	QWORD PTR [rax], OFFSET FLAT:_ZTVSt13runtime_error+16
	mov	rax, QWORD PTR [rbp-32]
	lea	rdx, [rax+8]
	mov	rax, QWORD PTR [rbp-24]
	add	rax, 8
	mov	rsi, rdx
	mov	rdi, rax
.LEHB111:
	call	_ZNSsC1ERKSs
.LEHE111:
.LBE115:
	jmp	.L393
.L392:
	mov	rbx, rax
.LBB116:
	mov	rax, QWORD PTR [rbp-24]
	mov	rdi, rax
	call	_ZNSt9exceptionD2Ev
	mov	rax, rbx
	mov	rdi, rax
.LEHB112:
	call	_Unwind_Resume
.LEHE112:
.L393:
.LBE116:
	add	rsp, 24
	pop	rbx
	pop	rbp
.LCFI359:
	.cfi_def_cfa 7, 8
	ret
	.cfi_endproc
.LFE7170:
	.section	.gcc_except_table
.LLSDA7170:
	.byte	0xff
	.byte	0xff
	.byte	0x1
	.uleb128 .LLSDACSE7170-.LLSDACSB7170
.LLSDACSB7170:
	.uleb128 .LEHB111-.LFB7170
	.uleb128 .LEHE111-.LEHB111
	.uleb128 .L392-.LFB7170
	.uleb128 0
	.uleb128 .LEHB112-.LFB7170
	.uleb128 .LEHE112-.LEHB112
	.uleb128 0
	.uleb128 0
.LLSDACSE7170:
	.section	.text._ZNSt13runtime_errorC2ERKS_,"axG",@progbits,_ZNSt13runtime_errorC5ERKS_,comdat
	.size	_ZNSt13runtime_errorC2ERKS_, .-_ZNSt13runtime_errorC2ERKS_
	.weak	_ZNSt13runtime_errorC1ERKS_
	.set	_ZNSt13runtime_errorC1ERKS_,_ZNSt13runtime_errorC2ERKS_
	.section	.text._ZN5boost6system12system_errorC2ERKS1_,"axG",@progbits,_ZN5boost6system12system_errorC5ERKS1_,comdat
	.align 2
	.weak	_ZN5boost6system12system_errorC2ERKS1_
	.type	_ZN5boost6system12system_errorC2ERKS1_, @function
_ZN5boost6system12system_errorC2ERKS1_:
.LFB7399:
	.loc 5 22 0
	.cfi_startproc
	.cfi_personality 0x3,__gxx_personality_v0
	.cfi_lsda 0x3,.LLSDA7399
	push	rbp
.LCFI360:
	.cfi_def_cfa_offset 16
	.cfi_offset 6, -16
	mov	rbp, rsp
.LCFI361:
	.cfi_def_cfa_register 6
	push	rbx
	sub	rsp, 24
	.cfi_offset 3, -24
	mov	QWORD PTR [rbp-24], rdi
	mov	QWORD PTR [rbp-32], rsi
.LBB117:
	.loc 5 22 0
	mov	rdx, QWORD PTR [rbp-32]
	mov	rax, QWORD PTR [rbp-24]
	mov	rsi, rdx
	mov	rdi, rax
.LEHB113:
	call	_ZNSt13runtime_errorC2ERKS_
.LEHE113:
	mov	rax, QWORD PTR [rbp-24]
	mov	QWORD PTR [rax], OFFSET FLAT:_ZTVN5boost6system12system_errorE+16
	mov	rax, QWORD PTR [rbp-24]
	mov	rdx, QWORD PTR [rbp-32]
	mov	rcx, QWORD PTR [rdx+16]
	mov	QWORD PTR [rax+16], rcx
	mov	rdx, QWORD PTR [rdx+24]
	mov	QWORD PTR [rax+24], rdx
	mov	rax, QWORD PTR [rbp-32]
	lea	rdx, [rax+32]
	mov	rax, QWORD PTR [rbp-24]
	add	rax, 32
	mov	rsi, rdx
	mov	rdi, rax
.LEHB114:
	call	_ZNSsC1ERKSs
.LEHE114:
.LBE117:
	jmp	.L397
.L396:
	mov	rbx, rax
.LBB118:
	mov	rax, QWORD PTR [rbp-24]
	mov	rdi, rax
	call	_ZNSt13runtime_errorD2Ev
	mov	rax, rbx
	mov	rdi, rax
.LEHB115:
	call	_Unwind_Resume
.LEHE115:
.L397:
.LBE118:
	add	rsp, 24
	pop	rbx
	pop	rbp
.LCFI362:
	.cfi_def_cfa 7, 8
	ret
	.cfi_endproc
.LFE7399:
	.section	.gcc_except_table
.LLSDA7399:
	.byte	0xff
	.byte	0xff
	.byte	0x1
	.uleb128 .LLSDACSE7399-.LLSDACSB7399
.LLSDACSB7399:
	.uleb128 .LEHB113-.LFB7399
	.uleb128 .LEHE113-.LEHB113
	.uleb128 0
	.uleb128 0
	.uleb128 .LEHB114-.LFB7399
	.uleb128 .LEHE114-.LEHB114
	.uleb128 .L396-.LFB7399
	.uleb128 0
	.uleb128 .LEHB115-.LFB7399
	.uleb128 .LEHE115-.LEHB115
	.uleb128 0
	.uleb128 0
.LLSDACSE7399:
	.section	.text._ZN5boost6system12system_errorC2ERKS1_,"axG",@progbits,_ZN5boost6system12system_errorC5ERKS1_,comdat
	.size	_ZN5boost6system12system_errorC2ERKS1_, .-_ZN5boost6system12system_errorC2ERKS1_
	.weak	_ZN5boost6system12system_errorC1ERKS1_
	.set	_ZN5boost6system12system_errorC1ERKS1_,_ZN5boost6system12system_errorC2ERKS1_
	.section	.text._ZN5boost16thread_exceptionC2ERKS0_,"axG",@progbits,_ZN5boost16thread_exceptionC5ERKS0_,comdat
	.align 2
	.weak	_ZN5boost16thread_exceptionC2ERKS0_
	.type	_ZN5boost16thread_exceptionC2ERKS0_, @function
_ZN5boost16thread_exceptionC2ERKS0_:
.LFB7401:
	.loc 6 36 0
	.cfi_startproc
	push	rbp
.LCFI363:
	.cfi_def_cfa_offset 16
	.cfi_offset 6, -16
	mov	rbp, rsp
.LCFI364:
	.cfi_def_cfa_register 6
	sub	rsp, 16
	mov	QWORD PTR [rbp-8], rdi
	mov	QWORD PTR [rbp-16], rsi
.LBB119:
	.loc 6 36 0
	mov	rdx, QWORD PTR [rbp-16]
	mov	rax, QWORD PTR [rbp-8]
	mov	rsi, rdx
	mov	rdi, rax
	call	_ZN5boost6system12system_errorC2ERKS1_
	mov	rax, QWORD PTR [rbp-8]
	mov	QWORD PTR [rax], OFFSET FLAT:_ZTVN5boost16thread_exceptionE+16
.LBE119:
	leave
.LCFI365:
	.cfi_def_cfa 7, 8
	ret
	.cfi_endproc
.LFE7401:
	.size	_ZN5boost16thread_exceptionC2ERKS0_, .-_ZN5boost16thread_exceptionC2ERKS0_
	.weak	_ZN5boost16thread_exceptionC1ERKS0_
	.set	_ZN5boost16thread_exceptionC1ERKS0_,_ZN5boost16thread_exceptionC2ERKS0_
	.section	.text._ZN5boost21thread_resource_errorC2ERKS0_,"axG",@progbits,_ZN5boost21thread_resource_errorC5ERKS0_,comdat
	.align 2
	.weak	_ZN5boost21thread_resource_errorC2ERKS0_
	.type	_ZN5boost21thread_resource_errorC2ERKS0_, @function
_ZN5boost21thread_resource_errorC2ERKS0_:
.LFB7403:
	.loc 6 121 0
	.cfi_startproc
	push	rbp
.LCFI366:
	.cfi_def_cfa_offset 16
	.cfi_offset 6, -16
	mov	rbp, rsp
.LCFI367:
	.cfi_def_cfa_register 6
	sub	rsp, 16
	mov	QWORD PTR [rbp-8], rdi
	mov	QWORD PTR [rbp-16], rsi
.LBB120:
	.loc 6 121 0
	mov	rdx, QWORD PTR [rbp-16]
	mov	rax, QWORD PTR [rbp-8]
	mov	rsi, rdx
	mov	rdi, rax
	call	_ZN5boost16thread_exceptionC2ERKS0_
	mov	rax, QWORD PTR [rbp-8]
	mov	QWORD PTR [rax], OFFSET FLAT:_ZTVN5boost21thread_resource_errorE+16
.LBE120:
	leave
.LCFI368:
	.cfi_def_cfa 7, 8
	ret
	.cfi_endproc
.LFE7403:
	.size	_ZN5boost21thread_resource_errorC2ERKS0_, .-_ZN5boost21thread_resource_errorC2ERKS0_
	.weak	_ZN5boost21thread_resource_errorC1ERKS0_
	.set	_ZN5boost21thread_resource_errorC1ERKS0_,_ZN5boost21thread_resource_errorC2ERKS0_
	.section	.text._ZN5boost16exception_detail19error_info_injectorINS_21thread_resource_errorEEC2ERKS3_,"axG",@progbits,_ZN5boost16exception_detail19error_info_injectorINS_21thread_resource_errorEEC5ERKS3_,comdat
	.align 2
	.weak	_ZN5boost16exception_detail19error_info_injectorINS_21thread_resource_errorEEC2ERKS3_
	.type	_ZN5boost16exception_detail19error_info_injectorINS_21thread_resource_errorEEC2ERKS3_, @function
_ZN5boost16exception_detail19error_info_injectorINS_21thread_resource_errorEEC2ERKS3_:
.LFB7405:
	.loc 7 320 0
	.cfi_startproc
	.cfi_personality 0x3,__gxx_personality_v0
	.cfi_lsda 0x3,.LLSDA7405
	push	rbp
.LCFI369:
	.cfi_def_cfa_offset 16
	.cfi_offset 6, -16
	mov	rbp, rsp
.LCFI370:
	.cfi_def_cfa_register 6
	push	rbx
	sub	rsp, 24
	.cfi_offset 3, -24
	mov	QWORD PTR [rbp-24], rdi
	mov	QWORD PTR [rbp-32], rsi
.LBB121:
	.loc 7 320 0
	mov	rdx, QWORD PTR [rbp-32]
	mov	rax, QWORD PTR [rbp-24]
	mov	rsi, rdx
	mov	rdi, rax
.LEHB116:
	call	_ZN5boost21thread_resource_errorC2ERKS0_
.LEHE116:
	mov	rax, QWORD PTR [rbp-32]
	lea	rdx, [rax+40]
	mov	rax, QWORD PTR [rbp-24]
	add	rax, 40
	mov	rsi, rdx
	mov	rdi, rax
.LEHB117:
	call	_ZN5boost9exceptionC2ERKS0_
.LEHE117:
	.loc 7 320 0 is_stmt 0 discriminator 1
	mov	rax, QWORD PTR [rbp-24]
	mov	QWORD PTR [rax], OFFSET FLAT:_ZTVN5boost16exception_detail19error_info_injectorINS_21thread_resource_errorEEE+16
	mov	rax, QWORD PTR [rbp-24]
	mov	QWORD PTR [rax+40], OFFSET FLAT:_ZTVN5boost16exception_detail19error_info_injectorINS_21thread_resource_errorEEE+56
	jmp	.L403
.L402:
	mov	rbx, rax
	.loc 7 320 0
	mov	rax, QWORD PTR [rbp-24]
	mov	rdi, rax
	call	_ZN5boost21thread_resource_errorD2Ev
	mov	rax, rbx
	mov	rdi, rax
.LEHB118:
	call	_Unwind_Resume
.LEHE118:
.L403:
.LBE121:
	add	rsp, 24
	pop	rbx
	pop	rbp
.LCFI371:
	.cfi_def_cfa 7, 8
	ret
	.cfi_endproc
.LFE7405:
	.section	.gcc_except_table
.LLSDA7405:
	.byte	0xff
	.byte	0xff
	.byte	0x1
	.uleb128 .LLSDACSE7405-.LLSDACSB7405
.LLSDACSB7405:
	.uleb128 .LEHB116-.LFB7405
	.uleb128 .LEHE116-.LEHB116
	.uleb128 0
	.uleb128 0
	.uleb128 .LEHB117-.LFB7405
	.uleb128 .LEHE117-.LEHB117
	.uleb128 .L402-.LFB7405
	.uleb128 0
	.uleb128 .LEHB118-.LFB7405
	.uleb128 .LEHE118-.LEHB118
	.uleb128 0
	.uleb128 0
.LLSDACSE7405:
	.section	.text._ZN5boost16exception_detail19error_info_injectorINS_21thread_resource_errorEEC2ERKS3_,"axG",@progbits,_ZN5boost16exception_detail19error_info_injectorINS_21thread_resource_errorEEC5ERKS3_,comdat
	.size	_ZN5boost16exception_detail19error_info_injectorINS_21thread_resource_errorEEC2ERKS3_, .-_ZN5boost16exception_detail19error_info_injectorINS_21thread_resource_errorEEC2ERKS3_
	.weak	_ZN5boost16exception_detail19error_info_injectorINS_21thread_resource_errorEEC1ERKS3_
	.set	_ZN5boost16exception_detail19error_info_injectorINS_21thread_resource_errorEEC1ERKS3_,_ZN5boost16exception_detail19error_info_injectorINS_21thread_resource_errorEEC2ERKS3_
	.section	.text._ZN5boost16exception_detail10clone_implINS0_19error_info_injectorINS_21thread_resource_errorEEEEC1ERKS5_,"axG",@progbits,_ZN5boost16exception_detail10clone_implINS0_19error_info_injectorINS_21thread_resource_errorEEEEC1ERKS5_,comdat
	.align 2
	.weak	_ZN5boost16exception_detail10clone_implINS0_19error_info_injectorINS_21thread_resource_errorEEEEC1ERKS5_
	.type	_ZN5boost16exception_detail10clone_implINS0_19error_info_injectorINS_21thread_resource_errorEEEEC1ERKS5_, @function
_ZN5boost16exception_detail10clone_implINS0_19error_info_injectorINS_21thread_resource_errorEEEEC1ERKS5_:
.LFB7408:
	.loc 7 431 0 is_stmt 1
	.cfi_startproc
	.cfi_personality 0x3,__gxx_personality_v0
	.cfi_lsda 0x3,.LLSDA7408
	push	rbp
.LCFI372:
	.cfi_def_cfa_offset 16
	.cfi_offset 6, -16
	mov	rbp, rsp
.LCFI373:
	.cfi_def_cfa_register 6
	push	rbx
	sub	rsp, 24
	.cfi_offset 3, -24
	mov	QWORD PTR [rbp-24], rdi
	mov	QWORD PTR [rbp-32], rsi
.LBB122:
	.loc 7 431 0
	mov	rax, QWORD PTR [rbp-32]
	mov	rax, QWORD PTR [rax]
	sub	rax, 24
	mov	rax, QWORD PTR [rax]
	mov	rdx, rax
	mov	rax, QWORD PTR [rbp-32]
	add	rdx, rax
	mov	rax, QWORD PTR [rbp-24]
	add	rax, 80
	mov	rsi, rdx
	mov	rdi, rax
	call	_ZN5boost16exception_detail10clone_baseC2ERKS1_
	mov	rdx, QWORD PTR [rbp-32]
	mov	rax, QWORD PTR [rbp-24]
	mov	rsi, rdx
	mov	rdi, rax
.LEHB119:
	call	_ZN5boost16exception_detail19error_info_injectorINS_21thread_resource_errorEEC2ERKS3_
.LEHE119:
	.loc 7 431 0 is_stmt 0 discriminator 5
	mov	edx, OFFSET FLAT:_ZTVN5boost16exception_detail10clone_implINS0_19error_info_injectorINS_21thread_resource_errorEEEEE+24
	mov	rax, QWORD PTR [rbp-24]
	mov	QWORD PTR [rax], rdx
	mov	rax, QWORD PTR [rbp-24]
	mov	QWORD PTR [rax+40], OFFSET FLAT:_ZTVN5boost16exception_detail10clone_implINS0_19error_info_injectorINS_21thread_resource_errorEEEEE+80
	mov	edx, 80
	mov	rax, QWORD PTR [rbp-24]
	add	rdx, rax
	mov	eax, OFFSET FLAT:_ZTVN5boost16exception_detail10clone_implINS0_19error_info_injectorINS_21thread_resource_errorEEEEE+136
	mov	QWORD PTR [rdx], rax
	jmp	.L407
.L406:
	mov	rbx, rax
	.loc 7 431 0
	mov	rax, QWORD PTR [rbp-24]
	add	rax, 80
	mov	rdi, rax
	call	_ZN5boost16exception_detail10clone_baseD2Ev
	mov	rax, rbx
	mov	rdi, rax
.LEHB120:
	call	_Unwind_Resume
.LEHE120:
.L407:
.LBE122:
	add	rsp, 24
	pop	rbx
	pop	rbp
.LCFI374:
	.cfi_def_cfa 7, 8
	ret
	.cfi_endproc
.LFE7408:
	.section	.gcc_except_table
.LLSDA7408:
	.byte	0xff
	.byte	0xff
	.byte	0x1
	.uleb128 .LLSDACSE7408-.LLSDACSB7408
.LLSDACSB7408:
	.uleb128 .LEHB119-.LFB7408
	.uleb128 .LEHE119-.LEHB119
	.uleb128 .L406-.LFB7408
	.uleb128 0
	.uleb128 .LEHB120-.LFB7408
	.uleb128 .LEHE120-.LEHB120
	.uleb128 0
	.uleb128 0
.LLSDACSE7408:
	.section	.text._ZN5boost16exception_detail10clone_implINS0_19error_info_injectorINS_21thread_resource_errorEEEEC1ERKS5_,"axG",@progbits,_ZN5boost16exception_detail10clone_implINS0_19error_info_injectorINS_21thread_resource_errorEEEEC1ERKS5_,comdat
	.size	_ZN5boost16exception_detail10clone_implINS0_19error_info_injectorINS_21thread_resource_errorEEEEC1ERKS5_, .-_ZN5boost16exception_detail10clone_implINS0_19error_info_injectorINS_21thread_resource_errorEEEEC1ERKS5_
	.section	.text._ZN5boost15throw_exceptionINS_21thread_resource_errorEEEvRKT_,"axG",@progbits,_ZN5boost15throw_exceptionINS_21thread_resource_errorEEEvRKT_,comdat
	.weak	_ZN5boost15throw_exceptionINS_21thread_resource_errorEEEvRKT_
	.type	_ZN5boost15throw_exceptionINS_21thread_resource_errorEEEvRKT_, @function
_ZN5boost15throw_exceptionINS_21thread_resource_errorEEEvRKT_:
.LFB7393:
	.loc 8 60 0 is_stmt 1
	.cfi_startproc
	.cfi_personality 0x3,__gxx_personality_v0
	.cfi_lsda 0x3,.LLSDA7393
	push	rbp
.LCFI375:
	.cfi_def_cfa_offset 16
	.cfi_offset 6, -16
	mov	rbp, rsp
.LCFI376:
	.cfi_def_cfa_register 6
	push	r12
	push	rbx
	sub	rsp, 96
	.cfi_offset 12, -24
	.cfi_offset 3, -32
	mov	QWORD PTR [rbp-104], rdi
	.loc 8 64 0
	mov	rax, QWORD PTR [rbp-104]
	mov	rdi, rax
	call	_ZN5boost36throw_exception_assert_compatibilityERKSt9exception
	.loc 8 67 0
	mov	edi, 88
	call	__cxa_allocate_exception
	mov	rbx, rax
	lea	rax, [rbp-96]
	mov	rdx, QWORD PTR [rbp-104]
	mov	rsi, rdx
	mov	rdi, rax
.LEHB121:
	call	_ZN5boost17enable_error_infoINS_21thread_resource_errorEEENS_16exception_detail29enable_error_info_return_typeIT_E4typeERKS4_
.LEHE121:
	.loc 8 67 0 is_stmt 0 discriminator 1
	lea	rax, [rbp-96]
	mov	rsi, rax
	mov	rdi, rbx
.LEHB122:
	call	_ZN5boost24enable_current_exceptionINS_16exception_detail19error_info_injectorINS_21thread_resource_errorEEEEENS1_10clone_implIT_EERKS6_
.LEHE122:
	.loc 8 67 0 discriminator 2
	lea	rax, [rbp-96]
	mov	rdi, rax
	call	_ZN5boost16exception_detail19error_info_injectorINS_21thread_resource_errorEED1Ev
	mov	edx, OFFSET FLAT:_ZN5boost16exception_detail10clone_implINS0_19error_info_injectorINS_21thread_resource_errorEEEED1Ev
	mov	esi, OFFSET FLAT:_ZTIN5boost16exception_detail10clone_implINS0_19error_info_injectorINS_21thread_resource_errorEEEEE
	mov	rdi, rbx
.LEHB123:
	call	__cxa_throw
.L412:
	mov	r12, rax
	.loc 8 67 0
	lea	rax, [rbp-96]
	mov	rdi, rax
	call	_ZN5boost16exception_detail19error_info_injectorINS_21thread_resource_errorEED1Ev
	jmp	.L410
.L411:
	mov	r12, rax
.L410:
	mov	rdi, rbx
	call	__cxa_free_exception
	mov	rax, r12
	mov	rdi, rax
	call	_Unwind_Resume
.LEHE123:
	.cfi_endproc
.LFE7393:
	.section	.gcc_except_table
.LLSDA7393:
	.byte	0xff
	.byte	0xff
	.byte	0x1
	.uleb128 .LLSDACSE7393-.LLSDACSB7393
.LLSDACSB7393:
	.uleb128 .LEHB121-.LFB7393
	.uleb128 .LEHE121-.LEHB121
	.uleb128 .L411-.LFB7393
	.uleb128 0
	.uleb128 .LEHB122-.LFB7393
	.uleb128 .LEHE122-.LEHB122
	.uleb128 .L412-.LFB7393
	.uleb128 0
	.uleb128 .LEHB123-.LFB7393
	.uleb128 .LEHE123-.LEHB123
	.uleb128 0
	.uleb128 0
.LLSDACSE7393:
	.section	.text._ZN5boost15throw_exceptionINS_21thread_resource_errorEEEvRKT_,"axG",@progbits,_ZN5boost15throw_exceptionINS_21thread_resource_errorEEEvRKT_,comdat
	.size	_ZN5boost15throw_exceptionINS_21thread_resource_errorEEEvRKT_, .-_ZN5boost15throw_exceptionINS_21thread_resource_errorEEEvRKT_
	.section	.text._ZN5boost10lock_errorC2ERKS0_,"axG",@progbits,_ZN5boost10lock_errorC5ERKS0_,comdat
	.align 2
	.weak	_ZN5boost10lock_errorC2ERKS0_
	.type	_ZN5boost10lock_errorC2ERKS0_, @function
_ZN5boost10lock_errorC2ERKS0_:
.LFB7413:
	.loc 6 94 0 is_stmt 1
	.cfi_startproc
	push	rbp
.LCFI377:
	.cfi_def_cfa_offset 16
	.cfi_offset 6, -16
	mov	rbp, rsp
.LCFI378:
	.cfi_def_cfa_register 6
	sub	rsp, 16
	mov	QWORD PTR [rbp-8], rdi
	mov	QWORD PTR [rbp-16], rsi
.LBB123:
	.loc 6 94 0
	mov	rdx, QWORD PTR [rbp-16]
	mov	rax, QWORD PTR [rbp-8]
	mov	rsi, rdx
	mov	rdi, rax
	call	_ZN5boost16thread_exceptionC2ERKS0_
	mov	rax, QWORD PTR [rbp-8]
	mov	QWORD PTR [rax], OFFSET FLAT:_ZTVN5boost10lock_errorE+16
.LBE123:
	leave
.LCFI379:
	.cfi_def_cfa 7, 8
	ret
	.cfi_endproc
.LFE7413:
	.size	_ZN5boost10lock_errorC2ERKS0_, .-_ZN5boost10lock_errorC2ERKS0_
	.weak	_ZN5boost10lock_errorC1ERKS0_
	.set	_ZN5boost10lock_errorC1ERKS0_,_ZN5boost10lock_errorC2ERKS0_
	.section	.text._ZN5boost16exception_detail19error_info_injectorINS_10lock_errorEEC2ERKS3_,"axG",@progbits,_ZN5boost16exception_detail19error_info_injectorINS_10lock_errorEEC5ERKS3_,comdat
	.align 2
	.weak	_ZN5boost16exception_detail19error_info_injectorINS_10lock_errorEEC2ERKS3_
	.type	_ZN5boost16exception_detail19error_info_injectorINS_10lock_errorEEC2ERKS3_, @function
_ZN5boost16exception_detail19error_info_injectorINS_10lock_errorEEC2ERKS3_:
.LFB7415:
	.loc 7 320 0
	.cfi_startproc
	.cfi_personality 0x3,__gxx_personality_v0
	.cfi_lsda 0x3,.LLSDA7415
	push	rbp
.LCFI380:
	.cfi_def_cfa_offset 16
	.cfi_offset 6, -16
	mov	rbp, rsp
.LCFI381:
	.cfi_def_cfa_register 6
	push	rbx
	sub	rsp, 24
	.cfi_offset 3, -24
	mov	QWORD PTR [rbp-24], rdi
	mov	QWORD PTR [rbp-32], rsi
.LBB124:
	.loc 7 320 0
	mov	rdx, QWORD PTR [rbp-32]
	mov	rax, QWORD PTR [rbp-24]
	mov	rsi, rdx
	mov	rdi, rax
.LEHB124:
	call	_ZN5boost10lock_errorC2ERKS0_
.LEHE124:
	mov	rax, QWORD PTR [rbp-32]
	lea	rdx, [rax+40]
	mov	rax, QWORD PTR [rbp-24]
	add	rax, 40
	mov	rsi, rdx
	mov	rdi, rax
.LEHB125:
	call	_ZN5boost9exceptionC2ERKS0_
.LEHE125:
	.loc 7 320 0 is_stmt 0 discriminator 1
	mov	rax, QWORD PTR [rbp-24]
	mov	QWORD PTR [rax], OFFSET FLAT:_ZTVN5boost16exception_detail19error_info_injectorINS_10lock_errorEEE+16
	mov	rax, QWORD PTR [rbp-24]
	mov	QWORD PTR [rax+40], OFFSET FLAT:_ZTVN5boost16exception_detail19error_info_injectorINS_10lock_errorEEE+56
	jmp	.L417
.L416:
	mov	rbx, rax
	.loc 7 320 0
	mov	rax, QWORD PTR [rbp-24]
	mov	rdi, rax
	call	_ZN5boost10lock_errorD2Ev
	mov	rax, rbx
	mov	rdi, rax
.LEHB126:
	call	_Unwind_Resume
.LEHE126:
.L417:
.LBE124:
	add	rsp, 24
	pop	rbx
	pop	rbp
.LCFI382:
	.cfi_def_cfa 7, 8
	ret
	.cfi_endproc
.LFE7415:
	.section	.gcc_except_table
.LLSDA7415:
	.byte	0xff
	.byte	0xff
	.byte	0x1
	.uleb128 .LLSDACSE7415-.LLSDACSB7415
.LLSDACSB7415:
	.uleb128 .LEHB124-.LFB7415
	.uleb128 .LEHE124-.LEHB124
	.uleb128 0
	.uleb128 0
	.uleb128 .LEHB125-.LFB7415
	.uleb128 .LEHE125-.LEHB125
	.uleb128 .L416-.LFB7415
	.uleb128 0
	.uleb128 .LEHB126-.LFB7415
	.uleb128 .LEHE126-.LEHB126
	.uleb128 0
	.uleb128 0
.LLSDACSE7415:
	.section	.text._ZN5boost16exception_detail19error_info_injectorINS_10lock_errorEEC2ERKS3_,"axG",@progbits,_ZN5boost16exception_detail19error_info_injectorINS_10lock_errorEEC5ERKS3_,comdat
	.size	_ZN5boost16exception_detail19error_info_injectorINS_10lock_errorEEC2ERKS3_, .-_ZN5boost16exception_detail19error_info_injectorINS_10lock_errorEEC2ERKS3_
	.weak	_ZN5boost16exception_detail19error_info_injectorINS_10lock_errorEEC1ERKS3_
	.set	_ZN5boost16exception_detail19error_info_injectorINS_10lock_errorEEC1ERKS3_,_ZN5boost16exception_detail19error_info_injectorINS_10lock_errorEEC2ERKS3_
	.section	.text._ZN5boost16exception_detail10clone_implINS0_19error_info_injectorINS_10lock_errorEEEEC1ERKS5_,"axG",@progbits,_ZN5boost16exception_detail10clone_implINS0_19error_info_injectorINS_10lock_errorEEEEC1ERKS5_,comdat
	.align 2
	.weak	_ZN5boost16exception_detail10clone_implINS0_19error_info_injectorINS_10lock_errorEEEEC1ERKS5_
	.type	_ZN5boost16exception_detail10clone_implINS0_19error_info_injectorINS_10lock_errorEEEEC1ERKS5_, @function
_ZN5boost16exception_detail10clone_implINS0_19error_info_injectorINS_10lock_errorEEEEC1ERKS5_:
.LFB7418:
	.loc 7 431 0 is_stmt 1
	.cfi_startproc
	.cfi_personality 0x3,__gxx_personality_v0
	.cfi_lsda 0x3,.LLSDA7418
	push	rbp
.LCFI383:
	.cfi_def_cfa_offset 16
	.cfi_offset 6, -16
	mov	rbp, rsp
.LCFI384:
	.cfi_def_cfa_register 6
	push	rbx
	sub	rsp, 24
	.cfi_offset 3, -24
	mov	QWORD PTR [rbp-24], rdi
	mov	QWORD PTR [rbp-32], rsi
.LBB125:
	.loc 7 431 0
	mov	rax, QWORD PTR [rbp-32]
	mov	rax, QWORD PTR [rax]
	sub	rax, 24
	mov	rax, QWORD PTR [rax]
	mov	rdx, rax
	mov	rax, QWORD PTR [rbp-32]
	add	rdx, rax
	mov	rax, QWORD PTR [rbp-24]
	add	rax, 80
	mov	rsi, rdx
	mov	rdi, rax
	call	_ZN5boost16exception_detail10clone_baseC2ERKS1_
	mov	rdx, QWORD PTR [rbp-32]
	mov	rax, QWORD PTR [rbp-24]
	mov	rsi, rdx
	mov	rdi, rax
.LEHB127:
	call	_ZN5boost16exception_detail19error_info_injectorINS_10lock_errorEEC2ERKS3_
.LEHE127:
	.loc 7 431 0 is_stmt 0 discriminator 5
	mov	edx, OFFSET FLAT:_ZTVN5boost16exception_detail10clone_implINS0_19error_info_injectorINS_10lock_errorEEEEE+24
	mov	rax, QWORD PTR [rbp-24]
	mov	QWORD PTR [rax], rdx
	mov	rax, QWORD PTR [rbp-24]
	mov	QWORD PTR [rax+40], OFFSET FLAT:_ZTVN5boost16exception_detail10clone_implINS0_19error_info_injectorINS_10lock_errorEEEEE+80
	mov	edx, 80
	mov	rax, QWORD PTR [rbp-24]
	add	rdx, rax
	mov	eax, OFFSET FLAT:_ZTVN5boost16exception_detail10clone_implINS0_19error_info_injectorINS_10lock_errorEEEEE+136
	mov	QWORD PTR [rdx], rax
	jmp	.L421
.L420:
	mov	rbx, rax
	.loc 7 431 0
	mov	rax, QWORD PTR [rbp-24]
	add	rax, 80
	mov	rdi, rax
	call	_ZN5boost16exception_detail10clone_baseD2Ev
	mov	rax, rbx
	mov	rdi, rax
.LEHB128:
	call	_Unwind_Resume
.LEHE128:
.L421:
.LBE125:
	add	rsp, 24
	pop	rbx
	pop	rbp
.LCFI385:
	.cfi_def_cfa 7, 8
	ret
	.cfi_endproc
.LFE7418:
	.section	.gcc_except_table
.LLSDA7418:
	.byte	0xff
	.byte	0xff
	.byte	0x1
	.uleb128 .LLSDACSE7418-.LLSDACSB7418
.LLSDACSB7418:
	.uleb128 .LEHB127-.LFB7418
	.uleb128 .LEHE127-.LEHB127
	.uleb128 .L420-.LFB7418
	.uleb128 0
	.uleb128 .LEHB128-.LFB7418
	.uleb128 .LEHE128-.LEHB128
	.uleb128 0
	.uleb128 0
.LLSDACSE7418:
	.section	.text._ZN5boost16exception_detail10clone_implINS0_19error_info_injectorINS_10lock_errorEEEEC1ERKS5_,"axG",@progbits,_ZN5boost16exception_detail10clone_implINS0_19error_info_injectorINS_10lock_errorEEEEC1ERKS5_,comdat
	.size	_ZN5boost16exception_detail10clone_implINS0_19error_info_injectorINS_10lock_errorEEEEC1ERKS5_, .-_ZN5boost16exception_detail10clone_implINS0_19error_info_injectorINS_10lock_errorEEEEC1ERKS5_
	.section	.text._ZN5boost15throw_exceptionINS_10lock_errorEEEvRKT_,"axG",@progbits,_ZN5boost15throw_exceptionINS_10lock_errorEEEvRKT_,comdat
	.weak	_ZN5boost15throw_exceptionINS_10lock_errorEEEvRKT_
	.type	_ZN5boost15throw_exceptionINS_10lock_errorEEEvRKT_, @function
_ZN5boost15throw_exceptionINS_10lock_errorEEEvRKT_:
.LFB7409:
	.loc 8 60 0 is_stmt 1
	.cfi_startproc
	.cfi_personality 0x3,__gxx_personality_v0
	.cfi_lsda 0x3,.LLSDA7409
	push	rbp
.LCFI386:
	.cfi_def_cfa_offset 16
	.cfi_offset 6, -16
	mov	rbp, rsp
.LCFI387:
	.cfi_def_cfa_register 6
	push	r12
	push	rbx
	sub	rsp, 96
	.cfi_offset 12, -24
	.cfi_offset 3, -32
	mov	QWORD PTR [rbp-104], rdi
	.loc 8 64 0
	mov	rax, QWORD PTR [rbp-104]
	mov	rdi, rax
	call	_ZN5boost36throw_exception_assert_compatibilityERKSt9exception
	.loc 8 67 0
	mov	edi, 88
	call	__cxa_allocate_exception
	mov	rbx, rax
	lea	rax, [rbp-96]
	mov	rdx, QWORD PTR [rbp-104]
	mov	rsi, rdx
	mov	rdi, rax
.LEHB129:
	call	_ZN5boost17enable_error_infoINS_10lock_errorEEENS_16exception_detail29enable_error_info_return_typeIT_E4typeERKS4_
.LEHE129:
	.loc 8 67 0 is_stmt 0 discriminator 1
	lea	rax, [rbp-96]
	mov	rsi, rax
	mov	rdi, rbx
.LEHB130:
	call	_ZN5boost24enable_current_exceptionINS_16exception_detail19error_info_injectorINS_10lock_errorEEEEENS1_10clone_implIT_EERKS6_
.LEHE130:
	.loc 8 67 0 discriminator 2
	lea	rax, [rbp-96]
	mov	rdi, rax
	call	_ZN5boost16exception_detail19error_info_injectorINS_10lock_errorEED1Ev
	mov	edx, OFFSET FLAT:_ZN5boost16exception_detail10clone_implINS0_19error_info_injectorINS_10lock_errorEEEED1Ev
	mov	esi, OFFSET FLAT:_ZTIN5boost16exception_detail10clone_implINS0_19error_info_injectorINS_10lock_errorEEEEE
	mov	rdi, rbx
.LEHB131:
	call	__cxa_throw
.L426:
	mov	r12, rax
	.loc 8 67 0
	lea	rax, [rbp-96]
	mov	rdi, rax
	call	_ZN5boost16exception_detail19error_info_injectorINS_10lock_errorEED1Ev
	jmp	.L424
.L425:
	mov	r12, rax
.L424:
	mov	rdi, rbx
	call	__cxa_free_exception
	mov	rax, r12
	mov	rdi, rax
	call	_Unwind_Resume
.LEHE131:
	.cfi_endproc
.LFE7409:
	.section	.gcc_except_table
.LLSDA7409:
	.byte	0xff
	.byte	0xff
	.byte	0x1
	.uleb128 .LLSDACSE7409-.LLSDACSB7409
.LLSDACSB7409:
	.uleb128 .LEHB129-.LFB7409
	.uleb128 .LEHE129-.LEHB129
	.uleb128 .L425-.LFB7409
	.uleb128 0
	.uleb128 .LEHB130-.LFB7409
	.uleb128 .LEHE130-.LEHB130
	.uleb128 .L426-.LFB7409
	.uleb128 0
	.uleb128 .LEHB131-.LFB7409
	.uleb128 .LEHE131-.LEHB131
	.uleb128 0
	.uleb128 0
.LLSDACSE7409:
	.section	.text._ZN5boost15throw_exceptionINS_10lock_errorEEEvRKT_,"axG",@progbits,_ZN5boost15throw_exceptionINS_10lock_errorEEEvRKT_,comdat
	.size	_ZN5boost15throw_exceptionINS_10lock_errorEEEvRKT_, .-_ZN5boost15throw_exceptionINS_10lock_errorEEEvRKT_
	.section	.text._ZN5boost8weak_ptrINS_6detail16thread_data_baseEED2Ev,"axG",@progbits,_ZN5boost8weak_ptrINS_6detail16thread_data_baseEED5Ev,comdat
	.align 2
	.weak	_ZN5boost8weak_ptrINS_6detail16thread_data_baseEED2Ev
	.type	_ZN5boost8weak_ptrINS_6detail16thread_data_baseEED2Ev, @function
_ZN5boost8weak_ptrINS_6detail16thread_data_baseEED2Ev:
.LFB7423:
	.file 25 "/usr/local/include/boost/smart_ptr/weak_ptr.hpp"
	.loc 25 23 0 is_stmt 1
	.cfi_startproc
	push	rbp
.LCFI388:
	.cfi_def_cfa_offset 16
	.cfi_offset 6, -16
	mov	rbp, rsp
.LCFI389:
	.cfi_def_cfa_register 6
	sub	rsp, 16
	mov	QWORD PTR [rbp-8], rdi
.LBB126:
	.loc 25 23 0
	mov	rax, QWORD PTR [rbp-8]
	add	rax, 8
	mov	rdi, rax
	call	_ZN5boost6detail10weak_countD1Ev
.LBE126:
	leave
.LCFI390:
	.cfi_def_cfa 7, 8
	ret
	.cfi_endproc
.LFE7423:
	.size	_ZN5boost8weak_ptrINS_6detail16thread_data_baseEED2Ev, .-_ZN5boost8weak_ptrINS_6detail16thread_data_baseEED2Ev
	.weak	_ZN5boost8weak_ptrINS_6detail16thread_data_baseEED1Ev
	.set	_ZN5boost8weak_ptrINS_6detail16thread_data_baseEED1Ev,_ZN5boost8weak_ptrINS_6detail16thread_data_baseEED2Ev
	.section	.text._ZN5boost23enable_shared_from_thisINS_6detail16thread_data_baseEEC2Ev,"axG",@progbits,_ZN5boost23enable_shared_from_thisINS_6detail16thread_data_baseEEC5Ev,comdat
	.align 2
	.weak	_ZN5boost23enable_shared_from_thisINS_6detail16thread_data_baseEEC2Ev
	.type	_ZN5boost23enable_shared_from_thisINS_6detail16thread_data_baseEEC2Ev, @function
_ZN5boost23enable_shared_from_thisINS_6detail16thread_data_baseEEC2Ev:
.LFB7425:
	.file 26 "/usr/local/include/boost/smart_ptr/enable_shared_from_this.hpp"
	.loc 26 28 0
	.cfi_startproc
	push	rbp
.LCFI391:
	.cfi_def_cfa_offset 16
	.cfi_offset 6, -16
	mov	rbp, rsp
.LCFI392:
	.cfi_def_cfa_register 6
	sub	rsp, 16
	mov	QWORD PTR [rbp-8], rdi
.LBB127:
	.loc 26 29 0
	mov	rax, QWORD PTR [rbp-8]
	mov	rdi, rax
	call	_ZN5boost8weak_ptrINS_6detail16thread_data_baseEEC1Ev
.LBE127:
	.loc 26 30 0
	leave
.LCFI393:
	.cfi_def_cfa 7, 8
	ret
	.cfi_endproc
.LFE7425:
	.size	_ZN5boost23enable_shared_from_thisINS_6detail16thread_data_baseEEC2Ev, .-_ZN5boost23enable_shared_from_thisINS_6detail16thread_data_baseEEC2Ev
	.weak	_ZN5boost23enable_shared_from_thisINS_6detail16thread_data_baseEEC1Ev
	.set	_ZN5boost23enable_shared_from_thisINS_6detail16thread_data_baseEEC1Ev,_ZN5boost23enable_shared_from_thisINS_6detail16thread_data_baseEEC2Ev
	.section	.text._ZN5boost23enable_shared_from_thisINS_6detail16thread_data_baseEED2Ev,"axG",@progbits,_ZN5boost23enable_shared_from_thisINS_6detail16thread_data_baseEED5Ev,comdat
	.align 2
	.weak	_ZN5boost23enable_shared_from_thisINS_6detail16thread_data_baseEED2Ev
	.type	_ZN5boost23enable_shared_from_thisINS_6detail16thread_data_baseEED2Ev, @function
_ZN5boost23enable_shared_from_thisINS_6detail16thread_data_baseEED2Ev:
.LFB7428:
	.loc 26 41 0
	.cfi_startproc
	push	rbp
.LCFI394:
	.cfi_def_cfa_offset 16
	.cfi_offset 6, -16
	mov	rbp, rsp
.LCFI395:
	.cfi_def_cfa_register 6
	sub	rsp, 16
	mov	QWORD PTR [rbp-8], rdi
.LBB128:
	.loc 26 43 0
	mov	rax, QWORD PTR [rbp-8]
	mov	rdi, rax
	call	_ZN5boost8weak_ptrINS_6detail16thread_data_baseEED1Ev
.LBE128:
	leave
.LCFI396:
	.cfi_def_cfa 7, 8
	ret
	.cfi_endproc
.LFE7428:
	.size	_ZN5boost23enable_shared_from_thisINS_6detail16thread_data_baseEED2Ev, .-_ZN5boost23enable_shared_from_thisINS_6detail16thread_data_baseEED2Ev
	.weak	_ZN5boost23enable_shared_from_thisINS_6detail16thread_data_baseEED1Ev
	.set	_ZN5boost23enable_shared_from_thisINS_6detail16thread_data_baseEED1Ev,_ZN5boost23enable_shared_from_thisINS_6detail16thread_data_baseEED2Ev
	.section	.text._ZN5boost10shared_ptrINS_6detail16thread_data_baseEEC2Ev,"axG",@progbits,_ZN5boost10shared_ptrINS_6detail16thread_data_baseEEC5Ev,comdat
	.align 2
	.weak	_ZN5boost10shared_ptrINS_6detail16thread_data_baseEEC2Ev
	.type	_ZN5boost10shared_ptrINS_6detail16thread_data_baseEEC2Ev, @function
_ZN5boost10shared_ptrINS_6detail16thread_data_baseEEC2Ev:
.LFB7431:
	.loc 11 339 0
	.cfi_startproc
	push	rbp
.LCFI397:
	.cfi_def_cfa_offset 16
	.cfi_offset 6, -16
	mov	rbp, rsp
.LCFI398:
	.cfi_def_cfa_register 6
	sub	rsp, 16
	mov	QWORD PTR [rbp-8], rdi
.LBB129:
	.loc 11 339 0
	mov	rax, QWORD PTR [rbp-8]
	mov	QWORD PTR [rax], 0
	mov	rax, QWORD PTR [rbp-8]
	add	rax, 8
	mov	rdi, rax
	call	_ZN5boost6detail12shared_countC1Ev
.LBE129:
	.loc 11 341 0
	leave
.LCFI399:
	.cfi_def_cfa 7, 8
	ret
	.cfi_endproc
.LFE7431:
	.size	_ZN5boost10shared_ptrINS_6detail16thread_data_baseEEC2Ev, .-_ZN5boost10shared_ptrINS_6detail16thread_data_baseEEC2Ev
	.weak	_ZN5boost10shared_ptrINS_6detail16thread_data_baseEEC1Ev
	.set	_ZN5boost10shared_ptrINS_6detail16thread_data_baseEEC1Ev,_ZN5boost10shared_ptrINS_6detail16thread_data_baseEEC2Ev
	.section	.text._ZNSt3mapIPKvN5boost6detail13tss_data_nodeESt4lessIS1_ESaISt4pairIKS1_S4_EEEC2Ev,"axG",@progbits,_ZNSt3mapIPKvN5boost6detail13tss_data_nodeESt4lessIS1_ESaISt4pairIKS1_S4_EEEC5Ev,comdat
	.align 2
	.weak	_ZNSt3mapIPKvN5boost6detail13tss_data_nodeESt4lessIS1_ESaISt4pairIKS1_S4_EEEC2Ev
	.type	_ZNSt3mapIPKvN5boost6detail13tss_data_nodeESt4lessIS1_ESaISt4pairIKS1_S4_EEEC2Ev, @function
_ZNSt3mapIPKvN5boost6detail13tss_data_nodeESt4lessIS1_ESaISt4pairIKS1_S4_EEEC2Ev:
.LFB7434:
	.loc 15 154 0
	.cfi_startproc
	push	rbp
.LCFI400:
	.cfi_def_cfa_offset 16
	.cfi_offset 6, -16
	mov	rbp, rsp
.LCFI401:
	.cfi_def_cfa_register 6
	sub	rsp, 16
	mov	QWORD PTR [rbp-8], rdi
.LBB130:
	.loc 15 155 0
	mov	rax, QWORD PTR [rbp-8]
	mov	rdi, rax
	call	_ZNSt8_Rb_treeIPKvSt4pairIKS1_N5boost6detail13tss_data_nodeEESt10_Select1stIS7_ESt4lessIS1_ESaIS7_EEC1Ev
.LBE130:
	leave
.LCFI402:
	.cfi_def_cfa 7, 8
	ret
	.cfi_endproc
.LFE7434:
	.size	_ZNSt3mapIPKvN5boost6detail13tss_data_nodeESt4lessIS1_ESaISt4pairIKS1_S4_EEEC2Ev, .-_ZNSt3mapIPKvN5boost6detail13tss_data_nodeESt4lessIS1_ESaISt4pairIKS1_S4_EEEC2Ev
	.weak	_ZNSt3mapIPKvN5boost6detail13tss_data_nodeESt4lessIS1_ESaISt4pairIKS1_S4_EEEC1Ev
	.set	_ZNSt3mapIPKvN5boost6detail13tss_data_nodeESt4lessIS1_ESaISt4pairIKS1_S4_EEEC1Ev,_ZNSt3mapIPKvN5boost6detail13tss_data_nodeESt4lessIS1_ESaISt4pairIKS1_S4_EEEC2Ev
	.section	.text._ZNSt8_Rb_treeIPKvSt4pairIKS1_N5boost6detail13tss_data_nodeEESt10_Select1stIS7_ESt4lessIS1_ESaIS7_EE13_Rb_tree_implISB_Lb0EED2Ev,"axG",@progbits,_ZNSt8_Rb_treeIPKvSt4pairIKS1_N5boost6detail13tss_data_nodeEESt10_Select1stIS7_ESt4lessIS1_ESaIS7_EE13_Rb_tree_implISB_Lb0EED5Ev,comdat
	.align 2
	.weak	_ZNSt8_Rb_treeIPKvSt4pairIKS1_N5boost6detail13tss_data_nodeEESt10_Select1stIS7_ESt4lessIS1_ESaIS7_EE13_Rb_tree_implISB_Lb0EED2Ev
	.type	_ZNSt8_Rb_treeIPKvSt4pairIKS1_N5boost6detail13tss_data_nodeEESt10_Select1stIS7_ESt4lessIS1_ESaIS7_EE13_Rb_tree_implISB_Lb0EED2Ev, @function
_ZNSt8_Rb_treeIPKvSt4pairIKS1_N5boost6detail13tss_data_nodeEESt10_Select1stIS7_ESt4lessIS1_ESaIS7_EE13_Rb_tree_implISB_Lb0EED2Ev:
.LFB7438:
	.file 27 "/usr/include/c++/4.7/bits/stl_tree.h"
	.loc 27 437 0
	.cfi_startproc
	push	rbp
.LCFI403:
	.cfi_def_cfa_offset 16
	.cfi_offset 6, -16
	mov	rbp, rsp
.LCFI404:
	.cfi_def_cfa_register 6
	sub	rsp, 16
	mov	QWORD PTR [rbp-8], rdi
.LBB131:
	.loc 27 437 0
	mov	rax, QWORD PTR [rbp-8]
	mov	rdi, rax
	call	_ZNSaISt13_Rb_tree_nodeISt4pairIKPKvN5boost6detail13tss_data_nodeEEEED2Ev
.LBE131:
	leave
.LCFI405:
	.cfi_def_cfa 7, 8
	ret
	.cfi_endproc
.LFE7438:
	.size	_ZNSt8_Rb_treeIPKvSt4pairIKS1_N5boost6detail13tss_data_nodeEESt10_Select1stIS7_ESt4lessIS1_ESaIS7_EE13_Rb_tree_implISB_Lb0EED2Ev, .-_ZNSt8_Rb_treeIPKvSt4pairIKS1_N5boost6detail13tss_data_nodeEESt10_Select1stIS7_ESt4lessIS1_ESaIS7_EE13_Rb_tree_implISB_Lb0EED2Ev
	.weak	_ZNSt8_Rb_treeIPKvSt4pairIKS1_N5boost6detail13tss_data_nodeEESt10_Select1stIS7_ESt4lessIS1_ESaIS7_EE13_Rb_tree_implISB_Lb0EED1Ev
	.set	_ZNSt8_Rb_treeIPKvSt4pairIKS1_N5boost6detail13tss_data_nodeEESt10_Select1stIS7_ESt4lessIS1_ESaIS7_EE13_Rb_tree_implISB_Lb0EED1Ev,_ZNSt8_Rb_treeIPKvSt4pairIKS1_N5boost6detail13tss_data_nodeEESt10_Select1stIS7_ESt4lessIS1_ESaIS7_EE13_Rb_tree_implISB_Lb0EED2Ev
	.section	.text._ZNSt8_Rb_treeIPKvSt4pairIKS1_N5boost6detail13tss_data_nodeEESt10_Select1stIS7_ESt4lessIS1_ESaIS7_EED2Ev,"axG",@progbits,_ZNSt8_Rb_treeIPKvSt4pairIKS1_N5boost6detail13tss_data_nodeEESt10_Select1stIS7_ESt4lessIS1_ESaIS7_EED5Ev,comdat
	.align 2
	.weak	_ZNSt8_Rb_treeIPKvSt4pairIKS1_N5boost6detail13tss_data_nodeEESt10_Select1stIS7_ESt4lessIS1_ESaIS7_EED2Ev
	.type	_ZNSt8_Rb_treeIPKvSt4pairIKS1_N5boost6detail13tss_data_nodeEESt10_Select1stIS7_ESt4lessIS1_ESaIS7_EED2Ev, @function
_ZNSt8_Rb_treeIPKvSt4pairIKS1_N5boost6detail13tss_data_nodeEESt10_Select1stIS7_ESt4lessIS1_ESaIS7_EED2Ev:
.LFB7440:
	.loc 27 645 0
	.cfi_startproc
	.cfi_personality 0x3,__gxx_personality_v0
	.cfi_lsda 0x3,.LLSDA7440
	push	rbp
.LCFI406:
	.cfi_def_cfa_offset 16
	.cfi_offset 6, -16
	mov	rbp, rsp
.LCFI407:
	.cfi_def_cfa_register 6
	push	rbx
	sub	rsp, 24
	.cfi_offset 3, -24
	mov	QWORD PTR [rbp-24], rdi
.LBB132:
	.loc 27 646 0
	mov	rax, QWORD PTR [rbp-24]
	mov	rdi, rax
	call	_ZNSt8_Rb_treeIPKvSt4pairIKS1_N5boost6detail13tss_data_nodeEESt10_Select1stIS7_ESt4lessIS1_ESaIS7_EE8_M_beginEv
	mov	rdx, rax
	mov	rax, QWORD PTR [rbp-24]
	mov	rsi, rdx
	mov	rdi, rax
.LEHB132:
	call	_ZNSt8_Rb_treeIPKvSt4pairIKS1_N5boost6detail13tss_data_nodeEESt10_Select1stIS7_ESt4lessIS1_ESaIS7_EE8_M_eraseEPSt13_Rb_tree_nodeIS7_E
.LEHE132:
	.loc 27 646 0 is_stmt 0 discriminator 1
	mov	rax, QWORD PTR [rbp-24]
	mov	rdi, rax
	call	_ZNSt8_Rb_treeIPKvSt4pairIKS1_N5boost6detail13tss_data_nodeEESt10_Select1stIS7_ESt4lessIS1_ESaIS7_EE13_Rb_tree_implISB_Lb0EED1Ev
	jmp	.L440
.L439:
	mov	rbx, rax
	.loc 27 646 0
	mov	rax, QWORD PTR [rbp-24]
	mov	rdi, rax
	call	_ZNSt8_Rb_treeIPKvSt4pairIKS1_N5boost6detail13tss_data_nodeEESt10_Select1stIS7_ESt4lessIS1_ESaIS7_EE13_Rb_tree_implISB_Lb0EED1Ev
	mov	rax, rbx
	mov	rdi, rax
.LEHB133:
	call	_Unwind_Resume
.LEHE133:
.L440:
.LBE132:
	add	rsp, 24
	pop	rbx
	pop	rbp
.LCFI408:
	.cfi_def_cfa 7, 8
	ret
	.cfi_endproc
.LFE7440:
	.section	.gcc_except_table
.LLSDA7440:
	.byte	0xff
	.byte	0xff
	.byte	0x1
	.uleb128 .LLSDACSE7440-.LLSDACSB7440
.LLSDACSB7440:
	.uleb128 .LEHB132-.LFB7440
	.uleb128 .LEHE132-.LEHB132
	.uleb128 .L439-.LFB7440
	.uleb128 0
	.uleb128 .LEHB133-.LFB7440
	.uleb128 .LEHE133-.LEHB133
	.uleb128 0
	.uleb128 0
.LLSDACSE7440:
	.section	.text._ZNSt8_Rb_treeIPKvSt4pairIKS1_N5boost6detail13tss_data_nodeEESt10_Select1stIS7_ESt4lessIS1_ESaIS7_EED2Ev,"axG",@progbits,_ZNSt8_Rb_treeIPKvSt4pairIKS1_N5boost6detail13tss_data_nodeEESt10_Select1stIS7_ESt4lessIS1_ESaIS7_EED5Ev,comdat
	.size	_ZNSt8_Rb_treeIPKvSt4pairIKS1_N5boost6detail13tss_data_nodeEESt10_Select1stIS7_ESt4lessIS1_ESaIS7_EED2Ev, .-_ZNSt8_Rb_treeIPKvSt4pairIKS1_N5boost6detail13tss_data_nodeEESt10_Select1stIS7_ESt4lessIS1_ESaIS7_EED2Ev
	.weak	_ZNSt8_Rb_treeIPKvSt4pairIKS1_N5boost6detail13tss_data_nodeEESt10_Select1stIS7_ESt4lessIS1_ESaIS7_EED1Ev
	.set	_ZNSt8_Rb_treeIPKvSt4pairIKS1_N5boost6detail13tss_data_nodeEESt10_Select1stIS7_ESt4lessIS1_ESaIS7_EED1Ev,_ZNSt8_Rb_treeIPKvSt4pairIKS1_N5boost6detail13tss_data_nodeEESt10_Select1stIS7_ESt4lessIS1_ESaIS7_EED2Ev
	.section	.text._ZNSt6vectorISt4pairIPN5boost18condition_variableEPNS1_5mutexEESaIS6_EEC2Ev,"axG",@progbits,_ZNSt6vectorISt4pairIPN5boost18condition_variableEPNS1_5mutexEESaIS6_EEC5Ev,comdat
	.align 2
	.weak	_ZNSt6vectorISt4pairIPN5boost18condition_variableEPNS1_5mutexEESaIS6_EEC2Ev
	.type	_ZNSt6vectorISt4pairIPN5boost18condition_variableEPNS1_5mutexEESaIS6_EEC2Ev, @function
_ZNSt6vectorISt4pairIPN5boost18condition_variableEPNS1_5mutexEESaIS6_EEC2Ev:
.LFB7443:
	.file 28 "/usr/include/c++/4.7/bits/stl_vector.h"
	.loc 28 246 0 is_stmt 1
	.cfi_startproc
	push	rbp
.LCFI409:
	.cfi_def_cfa_offset 16
	.cfi_offset 6, -16
	mov	rbp, rsp
.LCFI410:
	.cfi_def_cfa_register 6
	sub	rsp, 16
	mov	QWORD PTR [rbp-8], rdi
.LBB133:
	.loc 28 247 0
	mov	rax, QWORD PTR [rbp-8]
	mov	rdi, rax
	call	_ZNSt12_Vector_baseISt4pairIPN5boost18condition_variableEPNS1_5mutexEESaIS6_EEC2Ev
.LBE133:
	leave
.LCFI411:
	.cfi_def_cfa 7, 8
	ret
	.cfi_endproc
.LFE7443:
	.size	_ZNSt6vectorISt4pairIPN5boost18condition_variableEPNS1_5mutexEESaIS6_EEC2Ev, .-_ZNSt6vectorISt4pairIPN5boost18condition_variableEPNS1_5mutexEESaIS6_EEC2Ev
	.weak	_ZNSt6vectorISt4pairIPN5boost18condition_variableEPNS1_5mutexEESaIS6_EEC1Ev
	.set	_ZNSt6vectorISt4pairIPN5boost18condition_variableEPNS1_5mutexEESaIS6_EEC1Ev,_ZNSt6vectorISt4pairIPN5boost18condition_variableEPNS1_5mutexEESaIS6_EEC2Ev
	.section	.text._ZNSt6vectorISt4pairIPN5boost18condition_variableEPNS1_5mutexEESaIS6_EED2Ev,"axG",@progbits,_ZNSt6vectorISt4pairIPN5boost18condition_variableEPNS1_5mutexEESaIS6_EED5Ev,comdat
	.align 2
	.weak	_ZNSt6vectorISt4pairIPN5boost18condition_variableEPNS1_5mutexEESaIS6_EED2Ev
	.type	_ZNSt6vectorISt4pairIPN5boost18condition_variableEPNS1_5mutexEESaIS6_EED2Ev, @function
_ZNSt6vectorISt4pairIPN5boost18condition_variableEPNS1_5mutexEESaIS6_EED2Ev:
.LFB7446:
	.loc 28 402 0
	.cfi_startproc
	.cfi_personality 0x3,__gxx_personality_v0
	.cfi_lsda 0x3,.LLSDA7446
	push	rbp
.LCFI412:
	.cfi_def_cfa_offset 16
	.cfi_offset 6, -16
	mov	rbp, rsp
.LCFI413:
	.cfi_def_cfa_register 6
	push	rbx
	sub	rsp, 24
	.cfi_offset 3, -24
	mov	QWORD PTR [rbp-24], rdi
.LBB134:
	.loc 28 403 0
	mov	rax, QWORD PTR [rbp-24]
	mov	rdi, rax
	call	_ZNSt12_Vector_baseISt4pairIPN5boost18condition_variableEPNS1_5mutexEESaIS6_EE19_M_get_Tp_allocatorEv
	mov	rdx, rax
	mov	rax, QWORD PTR [rbp-24]
	mov	rcx, QWORD PTR [rax+8]
	mov	rax, QWORD PTR [rbp-24]
	mov	rax, QWORD PTR [rax]
	mov	rsi, rcx
	mov	rdi, rax
.LEHB134:
	call	_ZSt8_DestroyIPSt4pairIPN5boost18condition_variableEPNS1_5mutexEES6_EvT_S8_RSaIT0_E
.LEHE134:
	.loc 28 404 0
	mov	rax, QWORD PTR [rbp-24]
	mov	rdi, rax
.LEHB135:
	call	_ZNSt12_Vector_baseISt4pairIPN5boost18condition_variableEPNS1_5mutexEESaIS6_EED2Ev
.LEHE135:
	jmp	.L446
.L445:
	mov	rbx, rax
	mov	rax, QWORD PTR [rbp-24]
	mov	rdi, rax
	call	_ZNSt12_Vector_baseISt4pairIPN5boost18condition_variableEPNS1_5mutexEESaIS6_EED2Ev
	mov	rax, rbx
	mov	rdi, rax
.LEHB136:
	call	_Unwind_Resume
.LEHE136:
.L446:
.LBE134:
	add	rsp, 24
	pop	rbx
	pop	rbp
.LCFI414:
	.cfi_def_cfa 7, 8
	ret
	.cfi_endproc
.LFE7446:
	.section	.gcc_except_table
.LLSDA7446:
	.byte	0xff
	.byte	0xff
	.byte	0x1
	.uleb128 .LLSDACSE7446-.LLSDACSB7446
.LLSDACSB7446:
	.uleb128 .LEHB134-.LFB7446
	.uleb128 .LEHE134-.LEHB134
	.uleb128 .L445-.LFB7446
	.uleb128 0
	.uleb128 .LEHB135-.LFB7446
	.uleb128 .LEHE135-.LEHB135
	.uleb128 0
	.uleb128 0
	.uleb128 .LEHB136-.LFB7446
	.uleb128 .LEHE136-.LEHB136
	.uleb128 0
	.uleb128 0
.LLSDACSE7446:
	.section	.text._ZNSt6vectorISt4pairIPN5boost18condition_variableEPNS1_5mutexEESaIS6_EED2Ev,"axG",@progbits,_ZNSt6vectorISt4pairIPN5boost18condition_variableEPNS1_5mutexEESaIS6_EED5Ev,comdat
	.size	_ZNSt6vectorISt4pairIPN5boost18condition_variableEPNS1_5mutexEESaIS6_EED2Ev, .-_ZNSt6vectorISt4pairIPN5boost18condition_variableEPNS1_5mutexEESaIS6_EED2Ev
	.weak	_ZNSt6vectorISt4pairIPN5boost18condition_variableEPNS1_5mutexEESaIS6_EED1Ev
	.set	_ZNSt6vectorISt4pairIPN5boost18condition_variableEPNS1_5mutexEESaIS6_EED1Ev,_ZNSt6vectorISt4pairIPN5boost18condition_variableEPNS1_5mutexEESaIS6_EED2Ev
	.section	.text._ZNSt6vectorIN5boost10shared_ptrINS0_6detail18future_object_baseEEESaIS4_EEC2Ev,"axG",@progbits,_ZNSt6vectorIN5boost10shared_ptrINS0_6detail18future_object_baseEEESaIS4_EEC5Ev,comdat
	.align 2
	.weak	_ZNSt6vectorIN5boost10shared_ptrINS0_6detail18future_object_baseEEESaIS4_EEC2Ev
	.type	_ZNSt6vectorIN5boost10shared_ptrINS0_6detail18future_object_baseEEESaIS4_EEC2Ev, @function
_ZNSt6vectorIN5boost10shared_ptrINS0_6detail18future_object_baseEEESaIS4_EEC2Ev:
.LFB7449:
	.loc 28 246 0
	.cfi_startproc
	push	rbp
.LCFI415:
	.cfi_def_cfa_offset 16
	.cfi_offset 6, -16
	mov	rbp, rsp
.LCFI416:
	.cfi_def_cfa_register 6
	sub	rsp, 16
	mov	QWORD PTR [rbp-8], rdi
.LBB135:
	.loc 28 247 0
	mov	rax, QWORD PTR [rbp-8]
	mov	rdi, rax
	call	_ZNSt12_Vector_baseIN5boost10shared_ptrINS0_6detail18future_object_baseEEESaIS4_EEC2Ev
.LBE135:
	leave
.LCFI417:
	.cfi_def_cfa 7, 8
	ret
	.cfi_endproc
.LFE7449:
	.size	_ZNSt6vectorIN5boost10shared_ptrINS0_6detail18future_object_baseEEESaIS4_EEC2Ev, .-_ZNSt6vectorIN5boost10shared_ptrINS0_6detail18future_object_baseEEESaIS4_EEC2Ev
	.weak	_ZNSt6vectorIN5boost10shared_ptrINS0_6detail18future_object_baseEEESaIS4_EEC1Ev
	.set	_ZNSt6vectorIN5boost10shared_ptrINS0_6detail18future_object_baseEEESaIS4_EEC1Ev,_ZNSt6vectorIN5boost10shared_ptrINS0_6detail18future_object_baseEEESaIS4_EEC2Ev
	.section	.text._ZNSt4pairIPN5boost18condition_variableEPNS0_5mutexEEC2ERKS2_RKS4_,"axG",@progbits,_ZNSt4pairIPN5boost18condition_variableEPNS0_5mutexEEC5ERKS2_RKS4_,comdat
	.align 2
	.weak	_ZNSt4pairIPN5boost18condition_variableEPNS0_5mutexEEC2ERKS2_RKS4_
	.type	_ZNSt4pairIPN5boost18condition_variableEPNS0_5mutexEEC2ERKS2_RKS4_, @function
_ZNSt4pairIPN5boost18condition_variableEPNS0_5mutexEEC2ERKS2_RKS4_:
.LFB7455:
	.file 29 "/usr/include/c++/4.7/bits/stl_pair.h"
	.loc 29 104 0
	.cfi_startproc
	push	rbp
.LCFI418:
	.cfi_def_cfa_offset 16
	.cfi_offset 6, -16
	mov	rbp, rsp
.LCFI419:
	.cfi_def_cfa_register 6
	mov	QWORD PTR [rbp-8], rdi
	mov	QWORD PTR [rbp-16], rsi
	mov	QWORD PTR [rbp-24], rdx
.LBB136:
	.loc 29 105 0
	mov	rax, QWORD PTR [rbp-16]
	mov	rdx, QWORD PTR [rax]
	mov	rax, QWORD PTR [rbp-8]
	mov	QWORD PTR [rax], rdx
	mov	rax, QWORD PTR [rbp-24]
	mov	rdx, QWORD PTR [rax]
	mov	rax, QWORD PTR [rbp-8]
	mov	QWORD PTR [rax+8], rdx
.LBE136:
	pop	rbp
.LCFI420:
	.cfi_def_cfa 7, 8
	ret
	.cfi_endproc
.LFE7455:
	.size	_ZNSt4pairIPN5boost18condition_variableEPNS0_5mutexEEC2ERKS2_RKS4_, .-_ZNSt4pairIPN5boost18condition_variableEPNS0_5mutexEEC2ERKS2_RKS4_
	.weak	_ZNSt4pairIPN5boost18condition_variableEPNS0_5mutexEEC1ERKS2_RKS4_
	.set	_ZNSt4pairIPN5boost18condition_variableEPNS0_5mutexEEC1ERKS2_RKS4_,_ZNSt4pairIPN5boost18condition_variableEPNS0_5mutexEEC2ERKS2_RKS4_
	.section	.text._ZNSt6vectorISt4pairIPN5boost18condition_variableEPNS1_5mutexEESaIS6_EE9push_backERKS6_,"axG",@progbits,_ZNSt6vectorISt4pairIPN5boost18condition_variableEPNS1_5mutexEESaIS6_EE9push_backERKS6_,comdat
	.align 2
	.weak	_ZNSt6vectorISt4pairIPN5boost18condition_variableEPNS1_5mutexEESaIS6_EE9push_backERKS6_
	.type	_ZNSt6vectorISt4pairIPN5boost18condition_variableEPNS1_5mutexEESaIS6_EE9push_backERKS6_, @function
_ZNSt6vectorISt4pairIPN5boost18condition_variableEPNS1_5mutexEESaIS6_EE9push_backERKS6_:
.LFB7457:
	.loc 28 881 0
	.cfi_startproc
	push	rbp
.LCFI421:
	.cfi_def_cfa_offset 16
	.cfi_offset 6, -16
	mov	rbp, rsp
.LCFI422:
	.cfi_def_cfa_register 6
	sub	rsp, 16
	mov	QWORD PTR [rbp-8], rdi
	mov	QWORD PTR [rbp-16], rsi
	.loc 28 883 0
	mov	rax, QWORD PTR [rbp-8]
	mov	rdx, QWORD PTR [rax+8]
	mov	rax, QWORD PTR [rbp-8]
	mov	rax, QWORD PTR [rax+16]
	cmp	rdx, rax
	je	.L450
	.loc 28 885 0
	mov	rax, QWORD PTR [rbp-8]
	mov	rcx, QWORD PTR [rax+8]
	mov	rax, QWORD PTR [rbp-8]
	mov	rdx, QWORD PTR [rbp-16]
	mov	rsi, rcx
	mov	rdi, rax
	call	_ZN9__gnu_cxx14__alloc_traitsISaISt4pairIPN5boost18condition_variableEPNS2_5mutexEEEE9constructIS7_EEvRS8_PS7_RKT_
	.loc 28 887 0
	mov	rax, QWORD PTR [rbp-8]
	mov	rax, QWORD PTR [rax+8]
	lea	rdx, [rax+16]
	mov	rax, QWORD PTR [rbp-8]
	mov	QWORD PTR [rax+8], rdx
	jmp	.L449
.L450:
	.loc 28 893 0
	mov	rax, QWORD PTR [rbp-8]
	mov	rdi, rax
	call	_ZNSt6vectorISt4pairIPN5boost18condition_variableEPNS1_5mutexEESaIS6_EE3endEv
	mov	rcx, rax
	mov	rdx, QWORD PTR [rbp-16]
	mov	rax, QWORD PTR [rbp-8]
	mov	rsi, rcx
	mov	rdi, rax
	call	_ZNSt6vectorISt4pairIPN5boost18condition_variableEPNS1_5mutexEESaIS6_EE13_M_insert_auxEN9__gnu_cxx17__normal_iteratorIPS6_S8_EERKS6_
.L449:
	.loc 28 895 0
	leave
.LCFI423:
	.cfi_def_cfa 7, 8
	ret
	.cfi_endproc
.LFE7457:
	.size	_ZNSt6vectorISt4pairIPN5boost18condition_variableEPNS1_5mutexEESaIS6_EE9push_backERKS6_, .-_ZNSt6vectorISt4pairIPN5boost18condition_variableEPNS1_5mutexEESaIS6_EE9push_backERKS6_
	.section	.text._ZN5boost10lock_guardINS_5mutexEEC2ERS1_,"axG",@progbits,_ZN5boost10lock_guardINS_5mutexEEC5ERS1_,comdat
	.align 2
	.weak	_ZN5boost10lock_guardINS_5mutexEEC2ERS1_
	.type	_ZN5boost10lock_guardINS_5mutexEEC2ERS1_, @function
_ZN5boost10lock_guardINS_5mutexEEC2ERS1_:
.LFB7460:
	.file 30 "/usr/local/include/boost/thread/lock_guard.hpp"
	.loc 30 35 0
	.cfi_startproc
	push	rbp
.LCFI424:
	.cfi_def_cfa_offset 16
	.cfi_offset 6, -16
	mov	rbp, rsp
.LCFI425:
	.cfi_def_cfa_register 6
	sub	rsp, 16
	mov	QWORD PTR [rbp-8], rdi
	mov	QWORD PTR [rbp-16], rsi
.LBB137:
	.loc 30 36 0
	mov	rax, QWORD PTR [rbp-8]
	mov	rdx, QWORD PTR [rbp-16]
	mov	QWORD PTR [rax], rdx
	.loc 30 38 0
	mov	rax, QWORD PTR [rbp-8]
	mov	rax, QWORD PTR [rax]
	mov	rdi, rax
	call	_ZN5boost5mutex4lockEv
.LBE137:
	.loc 30 39 0
	leave
.LCFI426:
	.cfi_def_cfa 7, 8
	ret
	.cfi_endproc
.LFE7460:
	.size	_ZN5boost10lock_guardINS_5mutexEEC2ERS1_, .-_ZN5boost10lock_guardINS_5mutexEEC2ERS1_
	.weak	_ZN5boost10lock_guardINS_5mutexEEC1ERS1_
	.set	_ZN5boost10lock_guardINS_5mutexEEC1ERS1_,_ZN5boost10lock_guardINS_5mutexEEC2ERS1_
	.section	.text._ZN5boost10lock_guardINS_5mutexEED2Ev,"axG",@progbits,_ZN5boost10lock_guardINS_5mutexEED5Ev,comdat
	.align 2
	.weak	_ZN5boost10lock_guardINS_5mutexEED2Ev
	.type	_ZN5boost10lock_guardINS_5mutexEED2Ev, @function
_ZN5boost10lock_guardINS_5mutexEED2Ev:
.LFB7463:
	.loc 30 65 0
	.cfi_startproc
	push	rbp
.LCFI427:
	.cfi_def_cfa_offset 16
	.cfi_offset 6, -16
	mov	rbp, rsp
.LCFI428:
	.cfi_def_cfa_register 6
	sub	rsp, 16
	mov	QWORD PTR [rbp-8], rdi
.LBB138:
	.loc 30 67 0
	mov	rax, QWORD PTR [rbp-8]
	mov	rax, QWORD PTR [rax]
	mov	rdi, rax
	call	_ZN5boost5mutex6unlockEv
.LBE138:
	.loc 30 68 0
	leave
.LCFI429:
	.cfi_def_cfa 7, 8
	ret
	.cfi_endproc
.LFE7463:
	.size	_ZN5boost10lock_guardINS_5mutexEED2Ev, .-_ZN5boost10lock_guardINS_5mutexEED2Ev
	.weak	_ZN5boost10lock_guardINS_5mutexEED1Ev
	.set	_ZN5boost10lock_guardINS_5mutexEED1Ev,_ZN5boost10lock_guardINS_5mutexEED2Ev
	.section	.text._ZN5boost3argILi1EEC2Ev,"axG",@progbits,_ZN5boost3argILi1EEC5Ev,comdat
	.align 2
	.weak	_ZN5boost3argILi1EEC2Ev
	.type	_ZN5boost3argILi1EEC2Ev, @function
_ZN5boost3argILi1EEC2Ev:
.LFB7466:
	.file 31 "/usr/local/include/boost/bind/arg.hpp"
	.loc 31 30 0
	.cfi_startproc
	push	rbp
.LCFI430:
	.cfi_def_cfa_offset 16
	.cfi_offset 6, -16
	mov	rbp, rsp
.LCFI431:
	.cfi_def_cfa_register 6
	mov	QWORD PTR [rbp-8], rdi
	.loc 31 32 0
	pop	rbp
.LCFI432:
	.cfi_def_cfa 7, 8
	ret
	.cfi_endproc
.LFE7466:
	.size	_ZN5boost3argILi1EEC2Ev, .-_ZN5boost3argILi1EEC2Ev
	.weak	_ZN5boost3argILi1EEC1Ev
	.set	_ZN5boost3argILi1EEC1Ev,_ZN5boost3argILi1EEC2Ev
	.section	.text._ZN5boost3argILi2EEC2Ev,"axG",@progbits,_ZN5boost3argILi2EEC5Ev,comdat
	.align 2
	.weak	_ZN5boost3argILi2EEC2Ev
	.type	_ZN5boost3argILi2EEC2Ev, @function
_ZN5boost3argILi2EEC2Ev:
.LFB7469:
	.loc 31 30 0
	.cfi_startproc
	push	rbp
.LCFI433:
	.cfi_def_cfa_offset 16
	.cfi_offset 6, -16
	mov	rbp, rsp
.LCFI434:
	.cfi_def_cfa_register 6
	mov	QWORD PTR [rbp-8], rdi
	.loc 31 32 0
	pop	rbp
.LCFI435:
	.cfi_def_cfa 7, 8
	ret
	.cfi_endproc
.LFE7469:
	.size	_ZN5boost3argILi2EEC2Ev, .-_ZN5boost3argILi2EEC2Ev
	.weak	_ZN5boost3argILi2EEC1Ev
	.set	_ZN5boost3argILi2EEC1Ev,_ZN5boost3argILi2EEC2Ev
	.section	.text._ZN5boost3argILi3EEC2Ev,"axG",@progbits,_ZN5boost3argILi3EEC5Ev,comdat
	.align 2
	.weak	_ZN5boost3argILi3EEC2Ev
	.type	_ZN5boost3argILi3EEC2Ev, @function
_ZN5boost3argILi3EEC2Ev:
.LFB7472:
	.loc 31 30 0
	.cfi_startproc
	push	rbp
.LCFI436:
	.cfi_def_cfa_offset 16
	.cfi_offset 6, -16
	mov	rbp, rsp
.LCFI437:
	.cfi_def_cfa_register 6
	mov	QWORD PTR [rbp-8], rdi
	.loc 31 32 0
	pop	rbp
.LCFI438:
	.cfi_def_cfa 7, 8
	ret
	.cfi_endproc
.LFE7472:
	.size	_ZN5boost3argILi3EEC2Ev, .-_ZN5boost3argILi3EEC2Ev
	.weak	_ZN5boost3argILi3EEC1Ev
	.set	_ZN5boost3argILi3EEC1Ev,_ZN5boost3argILi3EEC2Ev
	.section	.text._ZN5boost3argILi4EEC2Ev,"axG",@progbits,_ZN5boost3argILi4EEC5Ev,comdat
	.align 2
	.weak	_ZN5boost3argILi4EEC2Ev
	.type	_ZN5boost3argILi4EEC2Ev, @function
_ZN5boost3argILi4EEC2Ev:
.LFB7475:
	.loc 31 30 0
	.cfi_startproc
	push	rbp
.LCFI439:
	.cfi_def_cfa_offset 16
	.cfi_offset 6, -16
	mov	rbp, rsp
.LCFI440:
	.cfi_def_cfa_register 6
	mov	QWORD PTR [rbp-8], rdi
	.loc 31 32 0
	pop	rbp
.LCFI441:
	.cfi_def_cfa 7, 8
	ret
	.cfi_endproc
.LFE7475:
	.size	_ZN5boost3argILi4EEC2Ev, .-_ZN5boost3argILi4EEC2Ev
	.weak	_ZN5boost3argILi4EEC1Ev
	.set	_ZN5boost3argILi4EEC1Ev,_ZN5boost3argILi4EEC2Ev
	.section	.text._ZN5boost3argILi5EEC2Ev,"axG",@progbits,_ZN5boost3argILi5EEC5Ev,comdat
	.align 2
	.weak	_ZN5boost3argILi5EEC2Ev
	.type	_ZN5boost3argILi5EEC2Ev, @function
_ZN5boost3argILi5EEC2Ev:
.LFB7478:
	.loc 31 30 0
	.cfi_startproc
	push	rbp
.LCFI442:
	.cfi_def_cfa_offset 16
	.cfi_offset 6, -16
	mov	rbp, rsp
.LCFI443:
	.cfi_def_cfa_register 6
	mov	QWORD PTR [rbp-8], rdi
	.loc 31 32 0
	pop	rbp
.LCFI444:
	.cfi_def_cfa 7, 8
	ret
	.cfi_endproc
.LFE7478:
	.size	_ZN5boost3argILi5EEC2Ev, .-_ZN5boost3argILi5EEC2Ev
	.weak	_ZN5boost3argILi5EEC1Ev
	.set	_ZN5boost3argILi5EEC1Ev,_ZN5boost3argILi5EEC2Ev
	.section	.text._ZN5boost3argILi6EEC2Ev,"axG",@progbits,_ZN5boost3argILi6EEC5Ev,comdat
	.align 2
	.weak	_ZN5boost3argILi6EEC2Ev
	.type	_ZN5boost3argILi6EEC2Ev, @function
_ZN5boost3argILi6EEC2Ev:
.LFB7481:
	.loc 31 30 0
	.cfi_startproc
	push	rbp
.LCFI445:
	.cfi_def_cfa_offset 16
	.cfi_offset 6, -16
	mov	rbp, rsp
.LCFI446:
	.cfi_def_cfa_register 6
	mov	QWORD PTR [rbp-8], rdi
	.loc 31 32 0
	pop	rbp
.LCFI447:
	.cfi_def_cfa 7, 8
	ret
	.cfi_endproc
.LFE7481:
	.size	_ZN5boost3argILi6EEC2Ev, .-_ZN5boost3argILi6EEC2Ev
	.weak	_ZN5boost3argILi6EEC1Ev
	.set	_ZN5boost3argILi6EEC1Ev,_ZN5boost3argILi6EEC2Ev
	.section	.text._ZN5boost3argILi7EEC2Ev,"axG",@progbits,_ZN5boost3argILi7EEC5Ev,comdat
	.align 2
	.weak	_ZN5boost3argILi7EEC2Ev
	.type	_ZN5boost3argILi7EEC2Ev, @function
_ZN5boost3argILi7EEC2Ev:
.LFB7484:
	.loc 31 30 0
	.cfi_startproc
	push	rbp
.LCFI448:
	.cfi_def_cfa_offset 16
	.cfi_offset 6, -16
	mov	rbp, rsp
.LCFI449:
	.cfi_def_cfa_register 6
	mov	QWORD PTR [rbp-8], rdi
	.loc 31 32 0
	pop	rbp
.LCFI450:
	.cfi_def_cfa 7, 8
	ret
	.cfi_endproc
.LFE7484:
	.size	_ZN5boost3argILi7EEC2Ev, .-_ZN5boost3argILi7EEC2Ev
	.weak	_ZN5boost3argILi7EEC1Ev
	.set	_ZN5boost3argILi7EEC1Ev,_ZN5boost3argILi7EEC2Ev
	.section	.text._ZN5boost3argILi8EEC2Ev,"axG",@progbits,_ZN5boost3argILi8EEC5Ev,comdat
	.align 2
	.weak	_ZN5boost3argILi8EEC2Ev
	.type	_ZN5boost3argILi8EEC2Ev, @function
_ZN5boost3argILi8EEC2Ev:
.LFB7487:
	.loc 31 30 0
	.cfi_startproc
	push	rbp
.LCFI451:
	.cfi_def_cfa_offset 16
	.cfi_offset 6, -16
	mov	rbp, rsp
.LCFI452:
	.cfi_def_cfa_register 6
	mov	QWORD PTR [rbp-8], rdi
	.loc 31 32 0
	pop	rbp
.LCFI453:
	.cfi_def_cfa 7, 8
	ret
	.cfi_endproc
.LFE7487:
	.size	_ZN5boost3argILi8EEC2Ev, .-_ZN5boost3argILi8EEC2Ev
	.weak	_ZN5boost3argILi8EEC1Ev
	.set	_ZN5boost3argILi8EEC1Ev,_ZN5boost3argILi8EEC2Ev
	.section	.text._ZN5boost3argILi9EEC2Ev,"axG",@progbits,_ZN5boost3argILi9EEC5Ev,comdat
	.align 2
	.weak	_ZN5boost3argILi9EEC2Ev
	.type	_ZN5boost3argILi9EEC2Ev, @function
_ZN5boost3argILi9EEC2Ev:
.LFB7490:
	.loc 31 30 0
	.cfi_startproc
	push	rbp
.LCFI454:
	.cfi_def_cfa_offset 16
	.cfi_offset 6, -16
	mov	rbp, rsp
.LCFI455:
	.cfi_def_cfa_register 6
	mov	QWORD PTR [rbp-8], rdi
	.loc 31 32 0
	pop	rbp
.LCFI456:
	.cfi_def_cfa 7, 8
	ret
	.cfi_endproc
.LFE7490:
	.size	_ZN5boost3argILi9EEC2Ev, .-_ZN5boost3argILi9EEC2Ev
	.weak	_ZN5boost3argILi9EEC1Ev
	.set	_ZN5boost3argILi9EEC1Ev,_ZN5boost3argILi9EEC2Ev
	.section	.text._ZN5boost16thread_cv_detail12lock_on_exitINS_11unique_lockINS_5mutexEEEEC2Ev,"axG",@progbits,_ZN5boost16thread_cv_detail12lock_on_exitINS_11unique_lockINS_5mutexEEEEC5Ev,comdat
	.align 2
	.weak	_ZN5boost16thread_cv_detail12lock_on_exitINS_11unique_lockINS_5mutexEEEEC2Ev
	.type	_ZN5boost16thread_cv_detail12lock_on_exitINS_11unique_lockINS_5mutexEEEEC2Ev, @function
_ZN5boost16thread_cv_detail12lock_on_exitINS_11unique_lockINS_5mutexEEEEC2Ev:
.LFB7523:
	.loc 18 39 0
	.cfi_startproc
	push	rbp
.LCFI457:
	.cfi_def_cfa_offset 16
	.cfi_offset 6, -16
	mov	rbp, rsp
.LCFI458:
	.cfi_def_cfa_register 6
	mov	QWORD PTR [rbp-8], rdi
.LBB139:
	.loc 18 40 0
	mov	rax, QWORD PTR [rbp-8]
	mov	QWORD PTR [rax], 0
.LBE139:
	.loc 18 41 0
	pop	rbp
.LCFI459:
	.cfi_def_cfa 7, 8
	ret
	.cfi_endproc
.LFE7523:
	.size	_ZN5boost16thread_cv_detail12lock_on_exitINS_11unique_lockINS_5mutexEEEEC2Ev, .-_ZN5boost16thread_cv_detail12lock_on_exitINS_11unique_lockINS_5mutexEEEEC2Ev
	.weak	_ZN5boost16thread_cv_detail12lock_on_exitINS_11unique_lockINS_5mutexEEEEC1Ev
	.set	_ZN5boost16thread_cv_detail12lock_on_exitINS_11unique_lockINS_5mutexEEEEC1Ev,_ZN5boost16thread_cv_detail12lock_on_exitINS_11unique_lockINS_5mutexEEEEC2Ev
	.section	.text._ZN5boost16thread_cv_detail12lock_on_exitINS_11unique_lockINS_5mutexEEEED2Ev,"axG",@progbits,_ZN5boost16thread_cv_detail12lock_on_exitINS_11unique_lockINS_5mutexEEEED5Ev,comdat
	.align 2
	.weak	_ZN5boost16thread_cv_detail12lock_on_exitINS_11unique_lockINS_5mutexEEEED2Ev
	.type	_ZN5boost16thread_cv_detail12lock_on_exitINS_11unique_lockINS_5mutexEEEED2Ev, @function
_ZN5boost16thread_cv_detail12lock_on_exitINS_11unique_lockINS_5mutexEEEED2Ev:
.LFB7526:
	.loc 18 48 0
	.cfi_startproc
	push	rbp
.LCFI460:
	.cfi_def_cfa_offset 16
	.cfi_offset 6, -16
	mov	rbp, rsp
.LCFI461:
	.cfi_def_cfa_register 6
	sub	rsp, 16
	mov	QWORD PTR [rbp-8], rdi
.LBB140:
	.loc 18 50 0
	mov	rax, QWORD PTR [rbp-8]
	mov	rax, QWORD PTR [rax]
	test	rax, rax
	je	.L465
	.loc 18 52 0
	mov	rax, QWORD PTR [rbp-8]
	mov	rax, QWORD PTR [rax]
	mov	rdi, rax
	call	_ZN5boost11unique_lockINS_5mutexEE4lockEv
.L465:
.LBE140:
	.loc 18 54 0
	leave
.LCFI462:
	.cfi_def_cfa 7, 8
	ret
	.cfi_endproc
.LFE7526:
	.size	_ZN5boost16thread_cv_detail12lock_on_exitINS_11unique_lockINS_5mutexEEEED2Ev, .-_ZN5boost16thread_cv_detail12lock_on_exitINS_11unique_lockINS_5mutexEEEED2Ev
	.weak	_ZN5boost16thread_cv_detail12lock_on_exitINS_11unique_lockINS_5mutexEEEED1Ev
	.set	_ZN5boost16thread_cv_detail12lock_on_exitINS_11unique_lockINS_5mutexEEEED1Ev,_ZN5boost16thread_cv_detail12lock_on_exitINS_11unique_lockINS_5mutexEEEED2Ev
	.section	.text._ZN5boost16thread_cv_detail12lock_on_exitINS_11unique_lockINS_5mutexEEEE8activateERS4_,"axG",@progbits,_ZN5boost16thread_cv_detail12lock_on_exitINS_11unique_lockINS_5mutexEEEE8activateERS4_,comdat
	.align 2
	.weak	_ZN5boost16thread_cv_detail12lock_on_exitINS_11unique_lockINS_5mutexEEEE8activateERS4_
	.type	_ZN5boost16thread_cv_detail12lock_on_exitINS_11unique_lockINS_5mutexEEEE8activateERS4_, @function
_ZN5boost16thread_cv_detail12lock_on_exitINS_11unique_lockINS_5mutexEEEE8activateERS4_:
.LFB7528:
	.loc 18 43 0
	.cfi_startproc
	push	rbp
.LCFI463:
	.cfi_def_cfa_offset 16
	.cfi_offset 6, -16
	mov	rbp, rsp
.LCFI464:
	.cfi_def_cfa_register 6
	sub	rsp, 16
	mov	QWORD PTR [rbp-8], rdi
	mov	QWORD PTR [rbp-16], rsi
	.loc 18 45 0
	mov	rax, QWORD PTR [rbp-16]
	mov	rdi, rax
	call	_ZN5boost11unique_lockINS_5mutexEE6unlockEv
	.loc 18 46 0
	mov	rax, QWORD PTR [rbp-8]
	mov	rdx, QWORD PTR [rbp-16]
	mov	QWORD PTR [rax], rdx
	.loc 18 47 0
	leave
.LCFI465:
	.cfi_def_cfa 7, 8
	ret
	.cfi_endproc
.LFE7528:
	.size	_ZN5boost16thread_cv_detail12lock_on_exitINS_11unique_lockINS_5mutexEEEE8activateERS4_, .-_ZN5boost16thread_cv_detail12lock_on_exitINS_11unique_lockINS_5mutexEEEE8activateERS4_
	.section	.text._ZN5boost15condition_errorC2ERKS0_,"axG",@progbits,_ZN5boost15condition_errorC5ERKS0_,comdat
	.align 2
	.weak	_ZN5boost15condition_errorC2ERKS0_
	.type	_ZN5boost15condition_errorC2ERKS0_, @function
_ZN5boost15condition_errorC2ERKS0_:
.LFB7533:
	.loc 6 70 0
	.cfi_startproc
	push	rbp
.LCFI466:
	.cfi_def_cfa_offset 16
	.cfi_offset 6, -16
	mov	rbp, rsp
.LCFI467:
	.cfi_def_cfa_register 6
	sub	rsp, 16
	mov	QWORD PTR [rbp-8], rdi
	mov	QWORD PTR [rbp-16], rsi
.LBB141:
	.loc 6 70 0
	mov	rdx, QWORD PTR [rbp-16]
	mov	rax, QWORD PTR [rbp-8]
	mov	rsi, rdx
	mov	rdi, rax
	call	_ZN5boost6system12system_errorC2ERKS1_
	mov	rax, QWORD PTR [rbp-8]
	mov	QWORD PTR [rax], OFFSET FLAT:_ZTVN5boost15condition_errorE+16
.LBE141:
	leave
.LCFI468:
	.cfi_def_cfa 7, 8
	ret
	.cfi_endproc
.LFE7533:
	.size	_ZN5boost15condition_errorC2ERKS0_, .-_ZN5boost15condition_errorC2ERKS0_
	.weak	_ZN5boost15condition_errorC1ERKS0_
	.set	_ZN5boost15condition_errorC1ERKS0_,_ZN5boost15condition_errorC2ERKS0_
	.section	.text._ZN5boost15condition_errorD2Ev,"axG",@progbits,_ZN5boost15condition_errorD5Ev,comdat
	.align 2
	.weak	_ZN5boost15condition_errorD2Ev
	.type	_ZN5boost15condition_errorD2Ev, @function
_ZN5boost15condition_errorD2Ev:
.LFB7536:
	.loc 6 70 0
	.cfi_startproc
	push	rbp
.LCFI469:
	.cfi_def_cfa_offset 16
	.cfi_offset 6, -16
	mov	rbp, rsp
.LCFI470:
	.cfi_def_cfa_register 6
	sub	rsp, 16
	mov	QWORD PTR [rbp-8], rdi
.LBB142:
	.loc 6 70 0
	mov	rax, QWORD PTR [rbp-8]
	mov	QWORD PTR [rax], OFFSET FLAT:_ZTVN5boost15condition_errorE+16
	mov	rax, QWORD PTR [rbp-8]
	mov	rdi, rax
	call	_ZN5boost6system12system_errorD2Ev
.LBE142:
	mov	eax, 0
	and	eax, 1
	test	eax, eax
	je	.L469
	.loc 6 70 0 is_stmt 0 discriminator 2
	mov	rax, QWORD PTR [rbp-8]
	mov	rdi, rax
	call	_ZdlPv
.L469:
	.loc 6 70 0
	leave
.LCFI471:
	.cfi_def_cfa 7, 8
	ret
	.cfi_endproc
.LFE7536:
	.size	_ZN5boost15condition_errorD2Ev, .-_ZN5boost15condition_errorD2Ev
	.weak	_ZN5boost15condition_errorD1Ev
	.set	_ZN5boost15condition_errorD1Ev,_ZN5boost15condition_errorD2Ev
	.section	.text._ZN5boost15condition_errorD0Ev,"axG",@progbits,_ZN5boost15condition_errorD0Ev,comdat
	.align 2
	.weak	_ZN5boost15condition_errorD0Ev
	.type	_ZN5boost15condition_errorD0Ev, @function
_ZN5boost15condition_errorD0Ev:
.LFB7538:
	.loc 6 70 0 is_stmt 1
	.cfi_startproc
	push	rbp
.LCFI472:
	.cfi_def_cfa_offset 16
	.cfi_offset 6, -16
	mov	rbp, rsp
.LCFI473:
	.cfi_def_cfa_register 6
	sub	rsp, 16
	mov	QWORD PTR [rbp-8], rdi
	.loc 6 70 0
	mov	rax, QWORD PTR [rbp-8]
	mov	rdi, rax
	call	_ZN5boost15condition_errorD1Ev
	mov	rax, QWORD PTR [rbp-8]
	mov	rdi, rax
	call	_ZdlPv
	leave
.LCFI474:
	.cfi_def_cfa 7, 8
	ret
	.cfi_endproc
.LFE7538:
	.size	_ZN5boost15condition_errorD0Ev, .-_ZN5boost15condition_errorD0Ev
	.section	.text._ZN5boost16exception_detail19error_info_injectorINS_15condition_errorEEC2ERKS3_,"axG",@progbits,_ZN5boost16exception_detail19error_info_injectorINS_15condition_errorEEC5ERKS3_,comdat
	.align 2
	.weak	_ZN5boost16exception_detail19error_info_injectorINS_15condition_errorEEC2ERKS3_
	.type	_ZN5boost16exception_detail19error_info_injectorINS_15condition_errorEEC2ERKS3_, @function
_ZN5boost16exception_detail19error_info_injectorINS_15condition_errorEEC2ERKS3_:
.LFB7539:
	.loc 7 320 0
	.cfi_startproc
	.cfi_personality 0x3,__gxx_personality_v0
	.cfi_lsda 0x3,.LLSDA7539
	push	rbp
.LCFI475:
	.cfi_def_cfa_offset 16
	.cfi_offset 6, -16
	mov	rbp, rsp
.LCFI476:
	.cfi_def_cfa_register 6
	push	rbx
	sub	rsp, 24
	.cfi_offset 3, -24
	mov	QWORD PTR [rbp-24], rdi
	mov	QWORD PTR [rbp-32], rsi
.LBB143:
	.loc 7 320 0
	mov	rdx, QWORD PTR [rbp-32]
	mov	rax, QWORD PTR [rbp-24]
	mov	rsi, rdx
	mov	rdi, rax
.LEHB137:
	call	_ZN5boost15condition_errorC2ERKS0_
.LEHE137:
	mov	rax, QWORD PTR [rbp-32]
	lea	rdx, [rax+40]
	mov	rax, QWORD PTR [rbp-24]
	add	rax, 40
	mov	rsi, rdx
	mov	rdi, rax
.LEHB138:
	call	_ZN5boost9exceptionC2ERKS0_
.LEHE138:
	.loc 7 320 0 is_stmt 0 discriminator 1
	mov	rax, QWORD PTR [rbp-24]
	mov	QWORD PTR [rax], OFFSET FLAT:_ZTVN5boost16exception_detail19error_info_injectorINS_15condition_errorEEE+16
	mov	rax, QWORD PTR [rbp-24]
	mov	QWORD PTR [rax+40], OFFSET FLAT:_ZTVN5boost16exception_detail19error_info_injectorINS_15condition_errorEEE+56
	jmp	.L477
.L476:
	mov	rbx, rax
	.loc 7 320 0
	mov	rax, QWORD PTR [rbp-24]
	mov	rdi, rax
	call	_ZN5boost15condition_errorD2Ev
	mov	rax, rbx
	mov	rdi, rax
.LEHB139:
	call	_Unwind_Resume
.LEHE139:
.L477:
.LBE143:
	add	rsp, 24
	pop	rbx
	pop	rbp
.LCFI477:
	.cfi_def_cfa 7, 8
	ret
	.cfi_endproc
.LFE7539:
	.section	.gcc_except_table
.LLSDA7539:
	.byte	0xff
	.byte	0xff
	.byte	0x1
	.uleb128 .LLSDACSE7539-.LLSDACSB7539
.LLSDACSB7539:
	.uleb128 .LEHB137-.LFB7539
	.uleb128 .LEHE137-.LEHB137
	.uleb128 0
	.uleb128 0
	.uleb128 .LEHB138-.LFB7539
	.uleb128 .LEHE138-.LEHB138
	.uleb128 .L476-.LFB7539
	.uleb128 0
	.uleb128 .LEHB139-.LFB7539
	.uleb128 .LEHE139-.LEHB139
	.uleb128 0
	.uleb128 0
.LLSDACSE7539:
	.section	.text._ZN5boost16exception_detail19error_info_injectorINS_15condition_errorEEC2ERKS3_,"axG",@progbits,_ZN5boost16exception_detail19error_info_injectorINS_15condition_errorEEC5ERKS3_,comdat
	.size	_ZN5boost16exception_detail19error_info_injectorINS_15condition_errorEEC2ERKS3_, .-_ZN5boost16exception_detail19error_info_injectorINS_15condition_errorEEC2ERKS3_
	.weak	_ZN5boost16exception_detail19error_info_injectorINS_15condition_errorEEC1ERKS3_
	.set	_ZN5boost16exception_detail19error_info_injectorINS_15condition_errorEEC1ERKS3_,_ZN5boost16exception_detail19error_info_injectorINS_15condition_errorEEC2ERKS3_
	.section	.text._ZN5boost16exception_detail10clone_implINS0_19error_info_injectorINS_15condition_errorEEEEC1ERKS5_,"axG",@progbits,_ZN5boost16exception_detail10clone_implINS0_19error_info_injectorINS_15condition_errorEEEEC1ERKS5_,comdat
	.align 2
	.weak	_ZN5boost16exception_detail10clone_implINS0_19error_info_injectorINS_15condition_errorEEEEC1ERKS5_
	.type	_ZN5boost16exception_detail10clone_implINS0_19error_info_injectorINS_15condition_errorEEEEC1ERKS5_, @function
_ZN5boost16exception_detail10clone_implINS0_19error_info_injectorINS_15condition_errorEEEEC1ERKS5_:
.LFB7542:
	.loc 7 431 0 is_stmt 1
	.cfi_startproc
	.cfi_personality 0x3,__gxx_personality_v0
	.cfi_lsda 0x3,.LLSDA7542
	push	rbp
.LCFI478:
	.cfi_def_cfa_offset 16
	.cfi_offset 6, -16
	mov	rbp, rsp
.LCFI479:
	.cfi_def_cfa_register 6
	push	rbx
	sub	rsp, 24
	.cfi_offset 3, -24
	mov	QWORD PTR [rbp-24], rdi
	mov	QWORD PTR [rbp-32], rsi
.LBB144:
	.loc 7 431 0
	mov	rax, QWORD PTR [rbp-32]
	mov	rax, QWORD PTR [rax]
	sub	rax, 24
	mov	rax, QWORD PTR [rax]
	mov	rdx, rax
	mov	rax, QWORD PTR [rbp-32]
	add	rdx, rax
	mov	rax, QWORD PTR [rbp-24]
	add	rax, 80
	mov	rsi, rdx
	mov	rdi, rax
	call	_ZN5boost16exception_detail10clone_baseC2ERKS1_
	mov	rdx, QWORD PTR [rbp-32]
	mov	rax, QWORD PTR [rbp-24]
	mov	rsi, rdx
	mov	rdi, rax
.LEHB140:
	call	_ZN5boost16exception_detail19error_info_injectorINS_15condition_errorEEC2ERKS3_
.LEHE140:
	.loc 7 431 0 is_stmt 0 discriminator 5
	mov	edx, OFFSET FLAT:_ZTVN5boost16exception_detail10clone_implINS0_19error_info_injectorINS_15condition_errorEEEEE+24
	mov	rax, QWORD PTR [rbp-24]
	mov	QWORD PTR [rax], rdx
	mov	rax, QWORD PTR [rbp-24]
	mov	QWORD PTR [rax+40], OFFSET FLAT:_ZTVN5boost16exception_detail10clone_implINS0_19error_info_injectorINS_15condition_errorEEEEE+80
	mov	edx, 80
	mov	rax, QWORD PTR [rbp-24]
	add	rdx, rax
	mov	eax, OFFSET FLAT:_ZTVN5boost16exception_detail10clone_implINS0_19error_info_injectorINS_15condition_errorEEEEE+136
	mov	QWORD PTR [rdx], rax
	jmp	.L481
.L480:
	mov	rbx, rax
	.loc 7 431 0
	mov	rax, QWORD PTR [rbp-24]
	add	rax, 80
	mov	rdi, rax
	call	_ZN5boost16exception_detail10clone_baseD2Ev
	mov	rax, rbx
	mov	rdi, rax
.LEHB141:
	call	_Unwind_Resume
.LEHE141:
.L481:
.LBE144:
	add	rsp, 24
	pop	rbx
	pop	rbp
.LCFI480:
	.cfi_def_cfa 7, 8
	ret
	.cfi_endproc
.LFE7542:
	.section	.gcc_except_table
.LLSDA7542:
	.byte	0xff
	.byte	0xff
	.byte	0x1
	.uleb128 .LLSDACSE7542-.LLSDACSB7542
.LLSDACSB7542:
	.uleb128 .LEHB140-.LFB7542
	.uleb128 .LEHE140-.LEHB140
	.uleb128 .L480-.LFB7542
	.uleb128 0
	.uleb128 .LEHB141-.LFB7542
	.uleb128 .LEHE141-.LEHB141
	.uleb128 0
	.uleb128 0
.LLSDACSE7542:
	.section	.text._ZN5boost16exception_detail10clone_implINS0_19error_info_injectorINS_15condition_errorEEEEC1ERKS5_,"axG",@progbits,_ZN5boost16exception_detail10clone_implINS0_19error_info_injectorINS_15condition_errorEEEEC1ERKS5_,comdat
	.size	_ZN5boost16exception_detail10clone_implINS0_19error_info_injectorINS_15condition_errorEEEEC1ERKS5_, .-_ZN5boost16exception_detail10clone_implINS0_19error_info_injectorINS_15condition_errorEEEEC1ERKS5_
	.section	.text._ZN5boost15throw_exceptionINS_15condition_errorEEEvRKT_,"axG",@progbits,_ZN5boost15throw_exceptionINS_15condition_errorEEEvRKT_,comdat
	.weak	_ZN5boost15throw_exceptionINS_15condition_errorEEEvRKT_
	.type	_ZN5boost15throw_exceptionINS_15condition_errorEEEvRKT_, @function
_ZN5boost15throw_exceptionINS_15condition_errorEEEvRKT_:
.LFB7529:
	.loc 8 60 0 is_stmt 1
	.cfi_startproc
	.cfi_personality 0x3,__gxx_personality_v0
	.cfi_lsda 0x3,.LLSDA7529
	push	rbp
.LCFI481:
	.cfi_def_cfa_offset 16
	.cfi_offset 6, -16
	mov	rbp, rsp
.LCFI482:
	.cfi_def_cfa_register 6
	push	r12
	push	rbx
	sub	rsp, 96
	.cfi_offset 12, -24
	.cfi_offset 3, -32
	mov	QWORD PTR [rbp-104], rdi
	.loc 8 64 0
	mov	rax, QWORD PTR [rbp-104]
	mov	rdi, rax
	call	_ZN5boost36throw_exception_assert_compatibilityERKSt9exception
	.loc 8 67 0
	mov	edi, 88
	call	__cxa_allocate_exception
	mov	rbx, rax
	lea	rax, [rbp-96]
	mov	rdx, QWORD PTR [rbp-104]
	mov	rsi, rdx
	mov	rdi, rax
.LEHB142:
	call	_ZN5boost17enable_error_infoINS_15condition_errorEEENS_16exception_detail29enable_error_info_return_typeIT_E4typeERKS4_
.LEHE142:
	.loc 8 67 0 is_stmt 0 discriminator 1
	lea	rax, [rbp-96]
	mov	rsi, rax
	mov	rdi, rbx
.LEHB143:
	call	_ZN5boost24enable_current_exceptionINS_16exception_detail19error_info_injectorINS_15condition_errorEEEEENS1_10clone_implIT_EERKS6_
.LEHE143:
	.loc 8 67 0 discriminator 2
	lea	rax, [rbp-96]
	mov	rdi, rax
	call	_ZN5boost16exception_detail19error_info_injectorINS_15condition_errorEED1Ev
	mov	edx, OFFSET FLAT:_ZN5boost16exception_detail10clone_implINS0_19error_info_injectorINS_15condition_errorEEEED1Ev
	mov	esi, OFFSET FLAT:_ZTIN5boost16exception_detail10clone_implINS0_19error_info_injectorINS_15condition_errorEEEEE
	mov	rdi, rbx
.LEHB144:
	call	__cxa_throw
.L486:
	mov	r12, rax
	.loc 8 67 0
	lea	rax, [rbp-96]
	mov	rdi, rax
	call	_ZN5boost16exception_detail19error_info_injectorINS_15condition_errorEED1Ev
	jmp	.L484
.L485:
	mov	r12, rax
.L484:
	mov	rdi, rbx
	call	__cxa_free_exception
	mov	rax, r12
	mov	rdi, rax
	call	_Unwind_Resume
.LEHE144:
	.cfi_endproc
.LFE7529:
	.section	.gcc_except_table
.LLSDA7529:
	.byte	0xff
	.byte	0xff
	.byte	0x1
	.uleb128 .LLSDACSE7529-.LLSDACSB7529
.LLSDACSB7529:
	.uleb128 .LEHB142-.LFB7529
	.uleb128 .LEHE142-.LEHB142
	.uleb128 .L485-.LFB7529
	.uleb128 0
	.uleb128 .LEHB143-.LFB7529
	.uleb128 .LEHE143-.LEHB143
	.uleb128 .L486-.LFB7529
	.uleb128 0
	.uleb128 .LEHB144-.LFB7529
	.uleb128 .LEHE144-.LEHB144
	.uleb128 0
	.uleb128 0
.LLSDACSE7529:
	.section	.text._ZN5boost15throw_exceptionINS_15condition_errorEEEvRKT_,"axG",@progbits,_ZN5boost15throw_exceptionINS_15condition_errorEEEvRKT_,comdat
	.size	_ZN5boost15throw_exceptionINS_15condition_errorEEEvRKT_, .-_ZN5boost15throw_exceptionINS_15condition_errorEEEvRKT_
	.section	.text._ZN5boost11unique_lockINS_5mutexEEC2ERS1_,"axG",@progbits,_ZN5boost11unique_lockINS_5mutexEEC5ERS1_,comdat
	.align 2
	.weak	_ZN5boost11unique_lockINS_5mutexEEC2ERS1_
	.type	_ZN5boost11unique_lockINS_5mutexEEC2ERS1_, @function
_ZN5boost11unique_lockINS_5mutexEEC2ERS1_:
.LFB7544:
	.file 32 "/usr/local/include/boost/thread/lock_types.hpp"
	.loc 32 121 0 is_stmt 1
	.cfi_startproc
	push	rbp
.LCFI483:
	.cfi_def_cfa_offset 16
	.cfi_offset 6, -16
	mov	rbp, rsp
.LCFI484:
	.cfi_def_cfa_register 6
	sub	rsp, 16
	mov	QWORD PTR [rbp-8], rdi
	mov	QWORD PTR [rbp-16], rsi
.LBB145:
	.loc 32 122 0
	mov	rax, QWORD PTR [rbp-8]
	mov	rdx, QWORD PTR [rbp-16]
	mov	QWORD PTR [rax], rdx
	mov	rax, QWORD PTR [rbp-8]
	mov	BYTE PTR [rax+8], 0
	.loc 32 124 0
	mov	rax, QWORD PTR [rbp-8]
	mov	rdi, rax
	call	_ZN5boost11unique_lockINS_5mutexEE4lockEv
.LBE145:
	.loc 32 125 0
	leave
.LCFI485:
	.cfi_def_cfa 7, 8
	ret
	.cfi_endproc
.LFE7544:
	.size	_ZN5boost11unique_lockINS_5mutexEEC2ERS1_, .-_ZN5boost11unique_lockINS_5mutexEEC2ERS1_
	.weak	_ZN5boost11unique_lockINS_5mutexEEC1ERS1_
	.set	_ZN5boost11unique_lockINS_5mutexEEC1ERS1_,_ZN5boost11unique_lockINS_5mutexEEC2ERS1_
	.section	.text._ZN5boost11unique_lockINS_5mutexEED2Ev,"axG",@progbits,_ZN5boost11unique_lockINS_5mutexEED5Ev,comdat
	.align 2
	.weak	_ZN5boost11unique_lockINS_5mutexEED2Ev
	.type	_ZN5boost11unique_lockINS_5mutexEED2Ev, @function
_ZN5boost11unique_lockINS_5mutexEED2Ev:
.LFB7547:
	.loc 32 325 0
	.cfi_startproc
	push	rbp
.LCFI486:
	.cfi_def_cfa_offset 16
	.cfi_offset 6, -16
	mov	rbp, rsp
.LCFI487:
	.cfi_def_cfa_register 6
	sub	rsp, 16
	mov	QWORD PTR [rbp-8], rdi
.LBB146:
	.loc 32 327 0
	mov	rax, QWORD PTR [rbp-8]
	mov	rdi, rax
	call	_ZNK5boost11unique_lockINS_5mutexEE9owns_lockEv
	test	al, al
	je	.L488
	.loc 32 329 0
	mov	rax, QWORD PTR [rbp-8]
	mov	rax, QWORD PTR [rax]
	mov	rdi, rax
	call	_ZN5boost5mutex6unlockEv
.L488:
.LBE146:
	.loc 32 331 0
	leave
.LCFI488:
	.cfi_def_cfa 7, 8
	ret
	.cfi_endproc
.LFE7547:
	.size	_ZN5boost11unique_lockINS_5mutexEED2Ev, .-_ZN5boost11unique_lockINS_5mutexEED2Ev
	.weak	_ZN5boost11unique_lockINS_5mutexEED1Ev
	.set	_ZN5boost11unique_lockINS_5mutexEED1Ev,_ZN5boost11unique_lockINS_5mutexEED2Ev
	.section	.text._ZNSt4listIPN5boost6threadESaIS2_EEC2Ev,"axG",@progbits,_ZNSt4listIPN5boost6threadESaIS2_EEC5Ev,comdat
	.align 2
	.weak	_ZNSt4listIPN5boost6threadESaIS2_EEC2Ev
	.type	_ZNSt4listIPN5boost6threadESaIS2_EEC2Ev, @function
_ZNSt4listIPN5boost6threadESaIS2_EEC2Ev:
.LFB7550:
	.loc 20 521 0
	.cfi_startproc
	push	rbp
.LCFI489:
	.cfi_def_cfa_offset 16
	.cfi_offset 6, -16
	mov	rbp, rsp
.LCFI490:
	.cfi_def_cfa_register 6
	sub	rsp, 16
	mov	QWORD PTR [rbp-8], rdi
.LBB147:
	.loc 20 522 0
	mov	rax, QWORD PTR [rbp-8]
	mov	rdi, rax
	call	_ZNSt10_List_baseIPN5boost6threadESaIS2_EEC2Ev
.LBE147:
	leave
.LCFI491:
	.cfi_def_cfa 7, 8
	ret
	.cfi_endproc
.LFE7550:
	.size	_ZNSt4listIPN5boost6threadESaIS2_EEC2Ev, .-_ZNSt4listIPN5boost6threadESaIS2_EEC2Ev
	.weak	_ZNSt4listIPN5boost6threadESaIS2_EEC1Ev
	.set	_ZNSt4listIPN5boost6threadESaIS2_EEC1Ev,_ZNSt4listIPN5boost6threadESaIS2_EEC2Ev
	.section	.text._ZNSt10_List_baseIPN5boost6threadESaIS2_EE10_List_implD2Ev,"axG",@progbits,_ZNSt10_List_baseIPN5boost6threadESaIS2_EE10_List_implD5Ev,comdat
	.align 2
	.weak	_ZNSt10_List_baseIPN5boost6threadESaIS2_EE10_List_implD2Ev
	.type	_ZNSt10_List_baseIPN5boost6threadESaIS2_EE10_List_implD2Ev, @function
_ZNSt10_List_baseIPN5boost6threadESaIS2_EE10_List_implD2Ev:
.LFB7554:
	.loc 20 311 0
	.cfi_startproc
	push	rbp
.LCFI492:
	.cfi_def_cfa_offset 16
	.cfi_offset 6, -16
	mov	rbp, rsp
.LCFI493:
	.cfi_def_cfa_register 6
	sub	rsp, 16
	mov	QWORD PTR [rbp-8], rdi
.LBB148:
	.loc 20 311 0
	mov	rax, QWORD PTR [rbp-8]
	mov	rdi, rax
	call	_ZNSaISt10_List_nodeIPN5boost6threadEEED2Ev
.LBE148:
	leave
.LCFI494:
	.cfi_def_cfa 7, 8
	ret
	.cfi_endproc
.LFE7554:
	.size	_ZNSt10_List_baseIPN5boost6threadESaIS2_EE10_List_implD2Ev, .-_ZNSt10_List_baseIPN5boost6threadESaIS2_EE10_List_implD2Ev
	.weak	_ZNSt10_List_baseIPN5boost6threadESaIS2_EE10_List_implD1Ev
	.set	_ZNSt10_List_baseIPN5boost6threadESaIS2_EE10_List_implD1Ev,_ZNSt10_List_baseIPN5boost6threadESaIS2_EE10_List_implD2Ev
	.section	.text._ZNSt10_List_baseIPN5boost6threadESaIS2_EED2Ev,"axG",@progbits,_ZNSt10_List_baseIPN5boost6threadESaIS2_EED5Ev,comdat
	.align 2
	.weak	_ZNSt10_List_baseIPN5boost6threadESaIS2_EED2Ev
	.type	_ZNSt10_List_baseIPN5boost6threadESaIS2_EED2Ev, @function
_ZNSt10_List_baseIPN5boost6threadESaIS2_EED2Ev:
.LFB7556:
	.loc 20 378 0
	.cfi_startproc
	.cfi_personality 0x3,__gxx_personality_v0
	.cfi_lsda 0x3,.LLSDA7556
	push	rbp
.LCFI495:
	.cfi_def_cfa_offset 16
	.cfi_offset 6, -16
	mov	rbp, rsp
.LCFI496:
	.cfi_def_cfa_register 6
	push	rbx
	sub	rsp, 24
	.cfi_offset 3, -24
	mov	QWORD PTR [rbp-24], rdi
.LBB149:
	.loc 20 379 0
	mov	rax, QWORD PTR [rbp-24]
	mov	rdi, rax
.LEHB145:
	call	_ZNSt10_List_baseIPN5boost6threadESaIS2_EE8_M_clearEv
.LEHE145:
	.loc 20 379 0 is_stmt 0 discriminator 1
	mov	rax, QWORD PTR [rbp-24]
	mov	rdi, rax
	call	_ZNSt10_List_baseIPN5boost6threadESaIS2_EE10_List_implD1Ev
	jmp	.L497
.L496:
	mov	rbx, rax
	.loc 20 379 0
	mov	rax, QWORD PTR [rbp-24]
	mov	rdi, rax
	call	_ZNSt10_List_baseIPN5boost6threadESaIS2_EE10_List_implD1Ev
	mov	rax, rbx
	mov	rdi, rax
.LEHB146:
	call	_Unwind_Resume
.LEHE146:
.L497:
.LBE149:
	add	rsp, 24
	pop	rbx
	pop	rbp
.LCFI497:
	.cfi_def_cfa 7, 8
	ret
	.cfi_endproc
.LFE7556:
	.section	.gcc_except_table
.LLSDA7556:
	.byte	0xff
	.byte	0xff
	.byte	0x1
	.uleb128 .LLSDACSE7556-.LLSDACSB7556
.LLSDACSB7556:
	.uleb128 .LEHB145-.LFB7556
	.uleb128 .LEHE145-.LEHB145
	.uleb128 .L496-.LFB7556
	.uleb128 0
	.uleb128 .LEHB146-.LFB7556
	.uleb128 .LEHE146-.LEHB146
	.uleb128 0
	.uleb128 0
.LLSDACSE7556:
	.section	.text._ZNSt10_List_baseIPN5boost6threadESaIS2_EED2Ev,"axG",@progbits,_ZNSt10_List_baseIPN5boost6threadESaIS2_EED5Ev,comdat
	.size	_ZNSt10_List_baseIPN5boost6threadESaIS2_EED2Ev, .-_ZNSt10_List_baseIPN5boost6threadESaIS2_EED2Ev
	.weak	_ZNSt10_List_baseIPN5boost6threadESaIS2_EED1Ev
	.set	_ZNSt10_List_baseIPN5boost6threadESaIS2_EED1Ev,_ZNSt10_List_baseIPN5boost6threadESaIS2_EED2Ev
	.section	.text._ZNSt4listIPN5boost6threadESaIS2_EE5beginEv,"axG",@progbits,_ZNSt4listIPN5boost6threadESaIS2_EE5beginEv,comdat
	.align 2
	.weak	_ZNSt4listIPN5boost6threadESaIS2_EE5beginEv
	.type	_ZNSt4listIPN5boost6threadESaIS2_EE5beginEv, @function
_ZNSt4listIPN5boost6threadESaIS2_EE5beginEv:
.LFB7558:
	.loc 20 739 0 is_stmt 1
	.cfi_startproc
	push	rbp
.LCFI498:
	.cfi_def_cfa_offset 16
	.cfi_offset 6, -16
	mov	rbp, rsp
.LCFI499:
	.cfi_def_cfa_register 6
	sub	rsp, 32
	mov	QWORD PTR [rbp-24], rdi
	.loc 20 740 0
	mov	rax, QWORD PTR [rbp-24]
	mov	rdx, QWORD PTR [rax]
	lea	rax, [rbp-16]
	mov	rsi, rdx
	mov	rdi, rax
	call	_ZNSt14_List_iteratorIPN5boost6threadEEC1EPNSt8__detail15_List_node_baseE
	mov	rax, QWORD PTR [rbp-16]
	leave
.LCFI500:
	.cfi_def_cfa 7, 8
	ret
	.cfi_endproc
.LFE7558:
	.size	_ZNSt4listIPN5boost6threadESaIS2_EE5beginEv, .-_ZNSt4listIPN5boost6threadESaIS2_EE5beginEv
	.section	.text._ZNSt4listIPN5boost6threadESaIS2_EE3endEv,"axG",@progbits,_ZNSt4listIPN5boost6threadESaIS2_EE3endEv,comdat
	.align 2
	.weak	_ZNSt4listIPN5boost6threadESaIS2_EE3endEv
	.type	_ZNSt4listIPN5boost6threadESaIS2_EE3endEv, @function
_ZNSt4listIPN5boost6threadESaIS2_EE3endEv:
.LFB7559:
	.loc 20 757 0
	.cfi_startproc
	push	rbp
.LCFI501:
	.cfi_def_cfa_offset 16
	.cfi_offset 6, -16
	mov	rbp, rsp
.LCFI502:
	.cfi_def_cfa_register 6
	sub	rsp, 32
	mov	QWORD PTR [rbp-24], rdi
	.loc 20 758 0
	mov	rdx, QWORD PTR [rbp-24]
	lea	rax, [rbp-16]
	mov	rsi, rdx
	mov	rdi, rax
	call	_ZNSt14_List_iteratorIPN5boost6threadEEC1EPNSt8__detail15_List_node_baseE
	mov	rax, QWORD PTR [rbp-16]
	leave
.LCFI503:
	.cfi_def_cfa 7, 8
	ret
	.cfi_endproc
.LFE7559:
	.size	_ZNSt4listIPN5boost6threadESaIS2_EE3endEv, .-_ZNSt4listIPN5boost6threadESaIS2_EE3endEv
	.section	.text._ZNKSt14_List_iteratorIPN5boost6threadEEneERKS3_,"axG",@progbits,_ZNKSt14_List_iteratorIPN5boost6threadEEneERKS3_,comdat
	.align 2
	.weak	_ZNKSt14_List_iteratorIPN5boost6threadEEneERKS3_
	.type	_ZNKSt14_List_iteratorIPN5boost6threadEEneERKS3_, @function
_ZNKSt14_List_iteratorIPN5boost6threadEEneERKS3_:
.LFB7560:
	.loc 20 188 0
	.cfi_startproc
	push	rbp
.LCFI504:
	.cfi_def_cfa_offset 16
	.cfi_offset 6, -16
	mov	rbp, rsp
.LCFI505:
	.cfi_def_cfa_register 6
	mov	QWORD PTR [rbp-8], rdi
	mov	QWORD PTR [rbp-16], rsi
	.loc 20 189 0
	mov	rax, QWORD PTR [rbp-8]
	mov	rdx, QWORD PTR [rax]
	mov	rax, QWORD PTR [rbp-16]
	mov	rax, QWORD PTR [rax]
	cmp	rdx, rax
	setne	al
	pop	rbp
.LCFI506:
	.cfi_def_cfa 7, 8
	ret
	.cfi_endproc
.LFE7560:
	.size	_ZNKSt14_List_iteratorIPN5boost6threadEEneERKS3_, .-_ZNKSt14_List_iteratorIPN5boost6threadEEneERKS3_
	.section	.text._ZNSt14_List_iteratorIPN5boost6threadEEppEv,"axG",@progbits,_ZNSt14_List_iteratorIPN5boost6threadEEppEv,comdat
	.align 2
	.weak	_ZNSt14_List_iteratorIPN5boost6threadEEppEv
	.type	_ZNSt14_List_iteratorIPN5boost6threadEEppEv, @function
_ZNSt14_List_iteratorIPN5boost6threadEEppEv:
.LFB7561:
	.loc 20 154 0
	.cfi_startproc
	push	rbp
.LCFI507:
	.cfi_def_cfa_offset 16
	.cfi_offset 6, -16
	mov	rbp, rsp
.LCFI508:
	.cfi_def_cfa_register 6
	mov	QWORD PTR [rbp-8], rdi
	.loc 20 156 0
	mov	rax, QWORD PTR [rbp-8]
	mov	rax, QWORD PTR [rax]
	mov	rdx, QWORD PTR [rax]
	mov	rax, QWORD PTR [rbp-8]
	mov	QWORD PTR [rax], rdx
	.loc 20 157 0
	mov	rax, QWORD PTR [rbp-8]
	.loc 20 158 0
	pop	rbp
.LCFI509:
	.cfi_def_cfa 7, 8
	ret
	.cfi_endproc
.LFE7561:
	.size	_ZNSt14_List_iteratorIPN5boost6threadEEppEv, .-_ZNSt14_List_iteratorIPN5boost6threadEEppEv
	.section	.text._ZNKSt14_List_iteratorIPN5boost6threadEEdeEv,"axG",@progbits,_ZNKSt14_List_iteratorIPN5boost6threadEEdeEv,comdat
	.align 2
	.weak	_ZNKSt14_List_iteratorIPN5boost6threadEEdeEv
	.type	_ZNKSt14_List_iteratorIPN5boost6threadEEdeEv, @function
_ZNKSt14_List_iteratorIPN5boost6threadEEdeEv:
.LFB7562:
	.loc 20 146 0
	.cfi_startproc
	push	rbp
.LCFI510:
	.cfi_def_cfa_offset 16
	.cfi_offset 6, -16
	mov	rbp, rsp
.LCFI511:
	.cfi_def_cfa_register 6
	mov	QWORD PTR [rbp-8], rdi
	.loc 20 147 0
	mov	rax, QWORD PTR [rbp-8]
	mov	rax, QWORD PTR [rax]
	add	rax, 16
	pop	rbp
.LCFI512:
	.cfi_def_cfa 7, 8
	ret
	.cfi_endproc
.LFE7562:
	.size	_ZNKSt14_List_iteratorIPN5boost6threadEEdeEv, .-_ZNKSt14_List_iteratorIPN5boost6threadEEdeEv
	.section	.text._ZN5boost11shared_lockINS_12shared_mutexEEC2ERS1_,"axG",@progbits,_ZN5boost11shared_lockINS_12shared_mutexEEC5ERS1_,comdat
	.align 2
	.weak	_ZN5boost11shared_lockINS_12shared_mutexEEC2ERS1_
	.type	_ZN5boost11shared_lockINS_12shared_mutexEEC2ERS1_, @function
_ZN5boost11shared_lockINS_12shared_mutexEEC2ERS1_:
.LFB7564:
	.loc 32 515 0
	.cfi_startproc
	push	rbp
.LCFI513:
	.cfi_def_cfa_offset 16
	.cfi_offset 6, -16
	mov	rbp, rsp
.LCFI514:
	.cfi_def_cfa_register 6
	sub	rsp, 16
	mov	QWORD PTR [rbp-8], rdi
	mov	QWORD PTR [rbp-16], rsi
.LBB150:
	.loc 32 516 0
	mov	rax, QWORD PTR [rbp-8]
	mov	rdx, QWORD PTR [rbp-16]
	mov	QWORD PTR [rax], rdx
	mov	rax, QWORD PTR [rbp-8]
	mov	BYTE PTR [rax+8], 0
	.loc 32 518 0
	mov	rax, QWORD PTR [rbp-8]
	mov	rdi, rax
	call	_ZN5boost11shared_lockINS_12shared_mutexEE4lockEv
.LBE150:
	.loc 32 519 0
	leave
.LCFI515:
	.cfi_def_cfa 7, 8
	ret
	.cfi_endproc
.LFE7564:
